

Microchip MPLAB XC8 Assembler V3.00 build 20241204225717 
                                                                                               Thu Dec 11 14:48:11 2025

Microchip MPLAB XC8 C Compiler v3.00 (Free license) build 20241204225717 Og1 
     1                           	processor	18F4520
     2                           	fnconf	rparam,??,?,0
     3                           	pagewidth 120
     4                           	opt	flic
     5                           	psect	idataCOMRAM,global,class=CODE,space=0,delta=1,noexec
     6                           	psect	idataBANK0,global,class=CODE,space=0,delta=1,noexec
     7                           	psect	smallconst,global,reloc=2,class=SMALLCONST,space=0,delta=1,noexec
     8                           	psect	cinit,global,reloc=2,class=CODE,space=0,delta=1
     9                           	psect	bssCOMRAM,global,class=COMRAM,space=1,delta=1,lowdata,noexec
    10                           	psect	dataCOMRAM,global,class=COMRAM,space=1,delta=1,lowdata,noexec
    11                           	psect	bssBANK0,global,class=BANK0,space=1,delta=1,lowdata,noexec
    12                           	psect	dataBANK0,global,class=BANK0,space=1,delta=1,lowdata,noexec
    13                           	psect	bssBANK1,global,class=BANK1,space=1,delta=1,lowdata,noexec
    14                           	psect	bssBANK2,global,class=BANK2,space=1,delta=1,lowdata,noexec
    15                           	psect	cstackBANK1,global,class=BANK1,space=1,delta=1,lowdata,noexec
    16                           	psect	cstackBANK0,global,class=BANK0,space=1,delta=1,lowdata,noexec
    17                           	psect	cstackCOMRAM,global,class=COMRAM,space=1,delta=1,lowdata,noexec
    18                           	psect	text0,global,reloc=2,class=CODE,space=0,delta=1
    19                           	psect	text1,global,reloc=2,class=CODE,space=0,delta=1
    20                           	psect	text2,global,reloc=2,class=CODE,space=0,delta=1,group=2
    21                           	psect	text3,global,reloc=2,class=CODE,space=0,delta=1
    22                           	psect	text4,global,reloc=2,class=CODE,space=0,delta=1,inline
    23                           	psect	text5,global,reloc=2,class=CODE,space=0,delta=1,group=1
    24                           	psect	text6,global,reloc=2,class=CODE,space=0,delta=1
    25                           	psect	text7,global,reloc=2,class=CODE,space=0,delta=1
    26                           	psect	text8,global,reloc=2,class=CODE,space=0,delta=1
    27                           	psect	text9,global,reloc=2,class=CODE,space=0,delta=1
    28                           	psect	text10,global,reloc=2,class=CODE,space=0,delta=1
    29                           	psect	text11,global,reloc=2,class=CODE,space=0,delta=1
    30                           	psect	text12,global,reloc=2,class=CODE,space=0,delta=1
    31                           	psect	text13,global,reloc=2,class=CODE,space=0,delta=1,group=2
    32                           	psect	text14,global,reloc=2,class=CODE,space=0,delta=1,group=2
    33                           	psect	text15,global,reloc=2,class=CODE,space=0,delta=1
    34                           	psect	text16,global,reloc=2,class=CODE,space=0,delta=1
    35                           	psect	text17,global,reloc=2,class=CODE,space=0,delta=1,group=2
    36                           	psect	text18,global,reloc=2,class=CODE,space=0,delta=1,group=1
    37                           	psect	text19,global,reloc=2,class=CODE,space=0,delta=1
    38                           	psect	text20,global,reloc=2,class=CODE,space=0,delta=1
    39                           	psect	text21,global,reloc=2,class=CODE,space=0,delta=1
    40                           	psect	text22,global,reloc=2,class=CODE,space=0,delta=1,group=1
    41                           	psect	text23,global,reloc=2,class=CODE,space=0,delta=1
    42                           	psect	text24,global,reloc=2,class=CODE,space=0,delta=1
    43                           	psect	text25,global,reloc=2,class=CODE,space=0,delta=1
    44                           	psect	text26,global,reloc=2,class=CODE,space=0,delta=1
    45                           	psect	intcodelo,global,reloc=2,class=CODE,space=0,delta=1
    46                           	psect	text28,global,reloc=2,class=CODE,space=0,delta=1
    47                           	psect	text29,global,reloc=2,class=CODE,space=0,delta=1
    48                           	psect	text30,global,reloc=2,class=CODE,space=0,delta=1
    49                           	psect	text31,global,reloc=2,class=CODE,space=0,delta=1
    50                           	psect	text32,global,reloc=2,class=CODE,space=0,delta=1
    51                           	psect	text33,global,reloc=2,class=CODE,space=0,delta=1
    52                           	psect	text34,global,reloc=2,class=CODE,space=0,delta=1
    53                           	psect	text35,global,reloc=2,class=CODE,space=0,delta=1
    54                           	psect	text36,global,reloc=2,class=CODE,space=0,delta=1
    55                           	psect	text37,global,reloc=2,class=CODE,space=0,delta=1
    56                           	psect	text38,global,reloc=2,class=CODE,space=0,delta=1
    57                           	psect	text39,global,reloc=2,class=CODE,space=0,delta=1
    58                           	psect	text40,global,reloc=2,class=CODE,space=0,delta=1
    59                           	psect	text41,global,reloc=2,class=CODE,space=0,delta=1
    60                           	psect	text42,global,reloc=2,class=CODE,space=0,delta=1
    61                           	psect	text43,global,reloc=2,class=CODE,space=0,delta=1
    62                           	psect	text44,global,reloc=2,class=CODE,space=0,delta=1
    63                           	psect	text45,global,reloc=2,class=CODE,space=0,delta=1
    64                           	psect	intsave_regs,global,class=BIGRAM,space=1,delta=1,noexec
    65                           	psect	rparam,global,class=COMRAM,space=1,delta=1,noexec
    66                           	psect	temp,global,ovrld,common,class=COMRAM,space=1,delta=1,lowdata
    67                           	psect	idloc,global,abs,ovrld,class=IDLOC,space=5,delta=1,noexec
    68                           	psect	config,global,abs,ovrld,class=CONFIG,space=4,delta=1,noexec
    69   000000                     
    70                           ; Generated 05/12/2024 GMT
    71                           ; 
    72                           ; Copyright © 2024, Microchip Technology Inc. and its subsidiaries ("Microchip")
    73                           ; All rights reserved.
    74                           ; 
    75                           ; This software is developed by Microchip Technology Inc. and its subsidiaries ("Microch
      +                          ip").
    76                           ; 
    77                           ; Redistribution and use in source and binary forms, with or without modification, are
    78                           ; permitted provided that the following conditions are met:
    79                           ; 
    80                           ;     1. Redistributions of source code must retain the above copyright notice, this lis
      +                          t of
    81                           ;        conditions and the following disclaimer.
    82                           ; 
    83                           ;     2. Redistributions in binary form must reproduce the above copyright notice, this 
      +                          list
    84                           ;        of conditions and the following disclaimer in the documentation and/or other
    85                           ;        materials provided with the distribution. Publication is not required when
    86                           ;        this file is used in an embedded application.
    87                           ; 
    88                           ;     3. Microchip's name may not be used to endorse or promote products derived from th
      +                          is
    89                           ;        software without specific prior written permission.
    90                           ; 
    91                           ; THIS SOFTWARE IS PROVIDED BY MICROCHIP "AS IS" AND ANY EXPRESS OR IMPLIED WARRANTIES,
    92                           ; INCLUDING, BUT NOT LIMITED TO, THE IMPLIED WARRANTIES OF MERCHANTABILITY AND FITNESS F
      +                          OR
    93                           ; PURPOSE ARE DISCLAIMED.  IN NO EVENT SHALL MICROCHIP BE LIABLE FOR ANY DIRECT, INDIREC
      +                          T,
    94                           ; INCIDENTAL, SPECIAL, EXEMPLARY, OR CONSEQUENTIAL DAMAGES (INCLUDING BUT NOT LIMITED TO
    95                           ; PROCUREMENT OF SUBSTITUTE GOODS OR SERVICES; LOSS OF USE, DATA OR PROFITS; OR BUSINESS
    96                           ; INTERRUPTION) HOWSOEVER CAUSED AND ON ANY THEORY OF LIABILITY, WHETHER IN CONTRACT, ST
      +                          RICT
    97                           ; LIABILITY, OR TORT (INCLUDING NEGLIGENCE OR OTHERWISE) ARISING IN ANY WAY OUT OF THE U
      +                          SE OF
    98                           ; THIS SOFTWARE, EVEN IF ADVISED OF THE POSSIBILITY OF SUCH DAMAGE.
    99                           ; 
   100                           ; 
   101                           ; Code-generator required, PIC18F4520 Definitions
   102                           ; 
   103                           ; SFR Addresses
   104   000FE0                     bsr             equ	4064
   105   000FE9                     fsr0            equ	4073
   106   000FEA                     fsr0h           equ	4074
   107   000FE9                     fsr0l           equ	4073
   108   000FE1                     fsr1            equ	4065
   109   000FE2                     fsr1h           equ	4066
   110   000FE1                     fsr1l           equ	4065
   111   000FD9                     fsr2            equ	4057
   112   000FDA                     fsr2h           equ	4058
   113   000FD9                     fsr2l           equ	4057
   114   000FEF                     indf0           equ	4079
   115   000FE7                     indf1           equ	4071
   116   000FDF                     indf2           equ	4063
   117   000FF2                     intcon          equ	4082
   118   000000                     nvmcon          equ	0
   119   000FF9                     pcl             equ	4089
   120   000FFA                     pclath          equ	4090
   121   000FFB                     pclatu          equ	4091
   122   000FEB                     plusw0          equ	4075
   123   000FE3                     plusw1          equ	4067
   124   000FDB                     plusw2          equ	4059
   125   000FED                     postdec0        equ	4077
   126   000FE5                     postdec1        equ	4069
   127   000FDD                     postdec2        equ	4061
   128   000FEE                     postinc0        equ	4078
   129   000FE6                     postinc1        equ	4070
   130   000FDE                     postinc2        equ	4062
   131   000FEC                     preinc0         equ	4076
   132   000FE4                     preinc1         equ	4068
   133   000FDC                     preinc2         equ	4060
   134   000FF3                     prod            equ	4083
   135   000FF4                     prodh           equ	4084
   136   000FF3                     prodl           equ	4083
   137   000FD8                     status          equ	4056
   138   000FF5                     tablat          equ	4085
   139   000FF6                     tblptr          equ	4086
   140   000FF7                     tblptrh         equ	4087
   141   000FF6                     tblptrl         equ	4086
   142   000FF8                     tblptru         equ	4088
   143   000FFD                     tosl            equ	4093
   144   000FE8                     wreg            equ	4072
   145   000F80                     PORTA           equ	3968	;# 
   146   000F81                     PORTB           equ	3969	;# 
   147   000F82                     PORTC           equ	3970	;# 
   148   000F83                     PORTD           equ	3971	;# 
   149   000F84                     PORTE           equ	3972	;# 
   150   000F89                     LATA            equ	3977	;# 
   151   000F8A                     LATB            equ	3978	;# 
   152   000F8B                     LATC            equ	3979	;# 
   153   000F8C                     LATD            equ	3980	;# 
   154   000F8D                     LATE            equ	3981	;# 
   155   000F92                     TRISA           equ	3986	;# 
   156   000F92                     DDRA            equ	3986	;# 
   157   000F93                     TRISB           equ	3987	;# 
   158   000F93                     DDRB            equ	3987	;# 
   159   000F94                     TRISC           equ	3988	;# 
   160   000F94                     DDRC            equ	3988	;# 
   161   000F95                     TRISD           equ	3989	;# 
   162   000F95                     DDRD            equ	3989	;# 
   163   000F96                     TRISE           equ	3990	;# 
   164   000F96                     DDRE            equ	3990	;# 
   165   000F9B                     OSCTUNE         equ	3995	;# 
   166   000F9D                     PIE1            equ	3997	;# 
   167   000F9E                     PIR1            equ	3998	;# 
   168   000F9F                     IPR1            equ	3999	;# 
   169   000FA0                     PIE2            equ	4000	;# 
   170   000FA1                     PIR2            equ	4001	;# 
   171   000FA2                     IPR2            equ	4002	;# 
   172   000FA6                     EECON1          equ	4006	;# 
   173   000FA7                     EECON2          equ	4007	;# 
   174   000FA8                     EEDATA          equ	4008	;# 
   175   000FA9                     EEADR           equ	4009	;# 
   176   000FAB                     RCSTA           equ	4011	;# 
   177   000FAB                     RCSTA1          equ	4011	;# 
   178   000FAC                     TXSTA           equ	4012	;# 
   179   000FAC                     TXSTA1          equ	4012	;# 
   180   000FAD                     TXREG           equ	4013	;# 
   181   000FAD                     TXREG1          equ	4013	;# 
   182   000FAE                     RCREG           equ	4014	;# 
   183   000FAE                     RCREG1          equ	4014	;# 
   184   000FAF                     SPBRG           equ	4015	;# 
   185   000FAF                     SPBRG1          equ	4015	;# 
   186   000FB0                     SPBRGH          equ	4016	;# 
   187   000FB1                     T3CON           equ	4017	;# 
   188   000FB2                     TMR3            equ	4018	;# 
   189   000FB2                     TMR3L           equ	4018	;# 
   190   000FB3                     TMR3H           equ	4019	;# 
   191   000FB4                     CMCON           equ	4020	;# 
   192   000FB5                     CVRCON          equ	4021	;# 
   193   000FB6                     ECCP1AS         equ	4022	;# 
   194   000FB6                     ECCPAS          equ	4022	;# 
   195   000FB7                     PWM1CON         equ	4023	;# 
   196   000FB7                     ECCP1DEL        equ	4023	;# 
   197   000FB8                     BAUDCON         equ	4024	;# 
   198   000FB8                     BAUDCTL         equ	4024	;# 
   199   000FBA                     CCP2CON         equ	4026	;# 
   200   000FBB                     CCPR2           equ	4027	;# 
   201   000FBB                     CCPR2L          equ	4027	;# 
   202   000FBC                     CCPR2H          equ	4028	;# 
   203   000FBD                     CCP1CON         equ	4029	;# 
   204   000FBE                     CCPR1           equ	4030	;# 
   205   000FBE                     CCPR1L          equ	4030	;# 
   206   000FBF                     CCPR1H          equ	4031	;# 
   207   000FC0                     ADCON2          equ	4032	;# 
   208   000FC1                     ADCON1          equ	4033	;# 
   209   000FC2                     ADCON0          equ	4034	;# 
   210   000FC3                     ADRES           equ	4035	;# 
   211   000FC3                     ADRESL          equ	4035	;# 
   212   000FC4                     ADRESH          equ	4036	;# 
   213   000FC5                     SSPCON2         equ	4037	;# 
   214   000FC6                     SSPCON1         equ	4038	;# 
   215   000FC7                     SSPSTAT         equ	4039	;# 
   216   000FC8                     SSPADD          equ	4040	;# 
   217   000FC9                     SSPBUF          equ	4041	;# 
   218   000FCA                     T2CON           equ	4042	;# 
   219   000FCB                     PR2             equ	4043	;# 
   220   000FCB                     MEMCON          equ	4043	;# 
   221   000FCC                     TMR2            equ	4044	;# 
   222   000FCD                     T1CON           equ	4045	;# 
   223   000FCE                     TMR1            equ	4046	;# 
   224   000FCE                     TMR1L           equ	4046	;# 
   225   000FCF                     TMR1H           equ	4047	;# 
   226   000FD0                     RCON            equ	4048	;# 
   227   000FD1                     WDTCON          equ	4049	;# 
   228   000FD2                     HLVDCON         equ	4050	;# 
   229   000FD2                     LVDCON          equ	4050	;# 
   230   000FD3                     OSCCON          equ	4051	;# 
   231   000FD5                     T0CON           equ	4053	;# 
   232   000FD6                     TMR0            equ	4054	;# 
   233   000FD6                     TMR0L           equ	4054	;# 
   234   000FD7                     TMR0H           equ	4055	;# 
   235   000FD8                     STATUS          equ	4056	;# 
   236   000FD9                     FSR2            equ	4057	;# 
   237   000FD9                     FSR2L           equ	4057	;# 
   238   000FDA                     FSR2H           equ	4058	;# 
   239   000FDB                     PLUSW2          equ	4059	;# 
   240   000FDC                     PREINC2         equ	4060	;# 
   241   000FDD                     POSTDEC2        equ	4061	;# 
   242   000FDE                     POSTINC2        equ	4062	;# 
   243   000FDF                     INDF2           equ	4063	;# 
   244   000FE0                     BSR             equ	4064	;# 
   245   000FE1                     FSR1            equ	4065	;# 
   246   000FE1                     FSR1L           equ	4065	;# 
   247   000FE2                     FSR1H           equ	4066	;# 
   248   000FE3                     PLUSW1          equ	4067	;# 
   249   000FE4                     PREINC1         equ	4068	;# 
   250   000FE5                     POSTDEC1        equ	4069	;# 
   251   000FE6                     POSTINC1        equ	4070	;# 
   252   000FE7                     INDF1           equ	4071	;# 
   253   000FE8                     WREG            equ	4072	;# 
   254   000FE9                     FSR0            equ	4073	;# 
   255   000FE9                     FSR0L           equ	4073	;# 
   256   000FEA                     FSR0H           equ	4074	;# 
   257   000FEB                     PLUSW0          equ	4075	;# 
   258   000FEC                     PREINC0         equ	4076	;# 
   259   000FED                     POSTDEC0        equ	4077	;# 
   260   000FEE                     POSTINC0        equ	4078	;# 
   261   000FEF                     INDF0           equ	4079	;# 
   262   000FF0                     INTCON3         equ	4080	;# 
   263   000FF1                     INTCON2         equ	4081	;# 
   264   000FF2                     INTCON          equ	4082	;# 
   265   000FF3                     PROD            equ	4083	;# 
   266   000FF3                     PRODL           equ	4083	;# 
   267   000FF4                     PRODH           equ	4084	;# 
   268   000FF5                     TABLAT          equ	4085	;# 
   269   000FF6                     TBLPTR          equ	4086	;# 
   270   000FF6                     TBLPTRL         equ	4086	;# 
   271   000FF7                     TBLPTRH         equ	4087	;# 
   272   000FF8                     TBLPTRU         equ	4088	;# 
   273   000FF9                     PCLAT           equ	4089	;# 
   274   000FF9                     PC              equ	4089	;# 
   275   000FF9                     PCL             equ	4089	;# 
   276   000FFA                     PCLATH          equ	4090	;# 
   277   000FFB                     PCLATU          equ	4091	;# 
   278   000FFC                     STKPTR          equ	4092	;# 
   279   000FFD                     TOS             equ	4093	;# 
   280   000FFD                     TOSL            equ	4093	;# 
   281   000FFE                     TOSH            equ	4094	;# 
   282   000FFF                     TOSU            equ	4095	;# 
   283                           
   284                           	psect	idataCOMRAM
   285   002BC0                     __pidataCOMRAM:
   286                           	callstack 0
   287                           
   288                           ;initializer for _prev_rb4
   289   002BC0  01                 	db	1
   290                           
   291                           ;initializer for _game_speed_ticks
   292   002BC1  0E                 	db	14
   293                           
   294                           ;initializer for _block_I
   295   002BC2  00                 	db	0
   296   002BC3  00                 	db	0
   297   002BC4  00                 	db	0
   298   002BC5  00                 	db	0
   299   002BC6  01                 	db	1
   300   002BC7  01                 	db	1
   301   002BC8  01                 	db	1
   302   002BC9  01                 	db	1
   303   002BCA  00                 	db	0
   304   002BCB  00                 	db	0
   305   002BCC  00                 	db	0
   306   002BCD  00                 	db	0
   307   002BCE  00                 	db	0
   308   002BCF  00                 	db	0
   309   002BD0  00                 	db	0
   310   002BD1  00                 	db	0
   311                           
   312                           	psect	idataBANK0
   313   002934                     __pidataBANK0:
   314                           	callstack 0
   315                           
   316                           ;initializer for _block_L
   317   002934  00                 	db	0
   318   002935  00                 	db	0
   319   002936  01                 	db	1
   320   002937  00                 	db	0
   321   002938  01                 	db	1
   322   002939  01                 	db	1
   323   00293A  01                 	db	1
   324   00293B  00                 	db	0
   325   00293C  00                 	db	0
   326   00293D  00                 	db	0
   327   00293E  00                 	db	0
   328   00293F  00                 	db	0
   329   002940  00                 	db	0
   330   002941  00                 	db	0
   331   002942  00                 	db	0
   332   002943  00                 	db	0
   333                           
   334                           ;initializer for _block_J
   335   002944  01                 	db	1
   336   002945  00                 	db	0
   337   002946  00                 	db	0
   338   002947  00                 	db	0
   339   002948  01                 	db	1
   340   002949  01                 	db	1
   341   00294A  01                 	db	1
   342   00294B  00                 	db	0
   343   00294C  00                 	db	0
   344   00294D  00                 	db	0
   345   00294E  00                 	db	0
   346   00294F  00                 	db	0
   347   002950  00                 	db	0
   348   002951  00                 	db	0
   349   002952  00                 	db	0
   350   002953  00                 	db	0
   351                           
   352                           ;initializer for _block_Z
   353   002954  01                 	db	1
   354   002955  01                 	db	1
   355   002956  00                 	db	0
   356   002957  00                 	db	0
   357   002958  00                 	db	0
   358   002959  01                 	db	1
   359   00295A  01                 	db	1
   360   00295B  00                 	db	0
   361   00295C  00                 	db	0
   362   00295D  00                 	db	0
   363   00295E  00                 	db	0
   364   00295F  00                 	db	0
   365   002960  00                 	db	0
   366   002961  00                 	db	0
   367   002962  00                 	db	0
   368   002963  00                 	db	0
   369                           
   370                           ;initializer for _block_S
   371   002964  00                 	db	0
   372   002965  01                 	db	1
   373   002966  01                 	db	1
   374   002967  00                 	db	0
   375   002968  01                 	db	1
   376   002969  01                 	db	1
   377   00296A  00                 	db	0
   378   00296B  00                 	db	0
   379   00296C  00                 	db	0
   380   00296D  00                 	db	0
   381   00296E  00                 	db	0
   382   00296F  00                 	db	0
   383   002970  00                 	db	0
   384   002971  00                 	db	0
   385   002972  00                 	db	0
   386   002973  00                 	db	0
   387                           
   388                           ;initializer for _block_T
   389   002974  00                 	db	0
   390   002975  01                 	db	1
   391   002976  00                 	db	0
   392   002977  00                 	db	0
   393   002978  01                 	db	1
   394   002979  01                 	db	1
   395   00297A  01                 	db	1
   396   00297B  00                 	db	0
   397   00297C  00                 	db	0
   398   00297D  00                 	db	0
   399   00297E  00                 	db	0
   400   00297F  00                 	db	0
   401   002980  00                 	db	0
   402   002981  00                 	db	0
   403   002982  00                 	db	0
   404   002983  00                 	db	0
   405                           
   406                           ;initializer for _block_O
   407   002984  00                 	db	0
   408   002985  01                 	db	1
   409   002986  01                 	db	1
   410   002987  00                 	db	0
   411   002988  00                 	db	0
   412   002989  01                 	db	1
   413   00298A  01                 	db	1
   414   00298B  00                 	db	0
   415   00298C  00                 	db	0
   416   00298D  00                 	db	0
   417   00298E  00                 	db	0
   418   00298F  00                 	db	0
   419   002990  00                 	db	0
   420   002991  00                 	db	0
   421   002992  00                 	db	0
   422   002993  00                 	db	0
   423   000F93                     _TRISBbits      set	3987
   424   000F8C                     _LATD           set	3980
   425   000F81                     _PORTBbits      set	3969
   426   000F95                     _TRISDbits      set	3989
   427   000F8B                     _LATCbits       set	3979
   428   000F8C                     _LATDbits       set	3980
   429   000F94                     _TRISCbits      set	3988
   430   000FD0                     _RCONbits       set	4048
   431   000FD3                     _OSCCONbits     set	4051
   432   000FC1                     _ADCON1         set	4033
   433   000FD3                     _OSCCON         set	4051
   434   000FAE                     _RCREG          set	4014
   435   000FAD                     _TXREG          set	4013
   436   000F9F                     _IPR1bits       set	3999
   437   000F9D                     _PIE1bits       set	3997
   438   000F9E                     _PIR1bits       set	3998
   439   000FAB                     _RCSTAbits      set	4011
   440   000FAF                     _SPBRG          set	4015
   441   000FB0                     _SPBRGH         set	4016
   442   000FB8                     _BAUDCONbits    set	4024
   443   000FAC                     _TXSTAbits      set	4012
   444   000FF2                     _INTCONbits     set	4082
   445                           
   446                           	psect	smallconst
   447   000600                     __psmallconst:
   448                           	callstack 0
   449   000600  00                 	db	0
   450   000601                     STR_2:
   451   000601  54                 	db	84	;'T'
   452   000602  45                 	db	69	;'E'
   453   000603  54                 	db	84	;'T'
   454   000604  52                 	db	82	;'R'
   455   000605  49                 	db	73	;'I'
   456   000606  53                 	db	83	;'S'
   457   000607  20                 	db	32
   458   000608  50                 	db	80	;'P'
   459   000609  49                 	db	73	;'I'
   460   00060A  47                 	db	71	;'G'
   461   00060B  21                 	db	33
   462   00060C  0D                 	db	13
   463   00060D  0A                 	db	10
   464   00060E  00                 	db	0
   465   00060F                     STR_1:
   466   00060F  1B                 	db	27
   467   000610  5B                 	db	91	;'['
   468   000611  32                 	db	50	;'2'
   469   000612  4A                 	db	74	;'J'
   470   000613  1B                 	db	27
   471   000614  5B                 	db	91	;'['
   472   000615  48                 	db	72	;'H'
   473   000616  1B                 	db	27
   474   000617  5B                 	db	91	;'['
   475   000618  33                 	db	51	;'3'
   476   000619  4A                 	db	74	;'J'
   477   00061A  00                 	db	0
   478   00061B  00                 	db	0	; dummy byte at the end
   479   000600                     __smallconst    set	__psmallconst
   480   000600                     __mediumconst   set	__psmallconst
   481   000002                     __activetblptr  equ	2
   482                           
   483                           ; #config settings
   484                           
   485                           	psect	cinit
   486   0024BA                     __pcinit:
   487                           	callstack 0
   488   0024BA                     start_initialization:
   489                           	callstack 0
   490   0024BA                     __initialization:
   491                           	callstack 0
   492                           
   493                           ; Initialize objects allocated to BANK0 (96 bytes)
   494                           ; load TBLPTR registers with __pidataBANK0
   495   0024BA  0E34               	movlw	low __pidataBANK0
   496   0024BC  6EF6               	movwf	tblptrl,c
   497   0024BE  0E29               	movlw	high __pidataBANK0
   498   0024C0  6EF7               	movwf	tblptrh,c
   499   0024C2  0E00               	movlw	low (__pidataBANK0 shr (0+16))
   500   0024C4  6EF8               	movwf	tblptru,c
   501   0024C6  EE00  F080         	lfsr	0,__pdataBANK0
   502   0024CA  EE10 F060          	lfsr	1,96
   503   0024CE                     copy_data0:
   504   0024CE  0009               	tblrd		*+
   505   0024D0  CFF5 FFEE          	movff	tablat,postinc0
   506   0024D4  50E5               	movf	postdec1,w,c
   507   0024D6  50E1               	movf	fsr1l,w,c
   508   0024D8  E1FA               	bnz	copy_data0
   509                           
   510                           ; Initialize objects allocated to COMRAM (18 bytes)
   511                           ; load TBLPTR registers with __pidataCOMRAM
   512   0024DA  0EC0               	movlw	low __pidataCOMRAM
   513   0024DC  6EF6               	movwf	tblptrl,c
   514   0024DE  0E2B               	movlw	high __pidataCOMRAM
   515   0024E0  6EF7               	movwf	tblptrh,c
   516   0024E2  0E00               	movlw	low (__pidataCOMRAM shr (0+16))
   517   0024E4  6EF8               	movwf	tblptru,c
   518   0024E6  EE00  F05F         	lfsr	0,__pdataCOMRAM
   519   0024EA  EE10 F012          	lfsr	1,18
   520   0024EE                     copy_data1:
   521   0024EE  0009               	tblrd		*+
   522   0024F0  CFF5 FFEE          	movff	tablat,postinc0
   523   0024F4  50E5               	movf	postdec1,w,c
   524   0024F6  50E1               	movf	fsr1l,w,c
   525   0024F8  E1FA               	bnz	copy_data1
   526                           
   527                           ; Clear objects allocated to BANK2 (128 bytes)
   528   0024FA  EE02  F000         	lfsr	0,__pbssBANK2
   529   0024FE  0E80               	movlw	128
   530   002500                     clear_0:
   531   002500  6AEE               	clrf	postinc0,c
   532   002502  06E8               	decf	wreg,f,c
   533   002504  E1FD               	bnz	clear_0
   534                           
   535                           ; Clear objects allocated to BANK1 (208 bytes)
   536   002506  EE01  F000         	lfsr	0,__pbssBANK1
   537   00250A  0ED0               	movlw	208
   538   00250C                     clear_1:
   539   00250C  6AEE               	clrf	postinc0,c
   540   00250E  06E8               	decf	wreg,f,c
   541   002510  E1FD               	bnz	clear_1
   542                           
   543                           ; Clear objects allocated to BANK0 (6 bytes)
   544   002512  0100               	movlb	0
   545   002514  6BFF               	clrf	(__pbssBANK0+5)& (0+255),b
   546   002516  6BFE               	clrf	(__pbssBANK0+4)& (0+255),b
   547   002518  6BFD               	clrf	(__pbssBANK0+3)& (0+255),b
   548   00251A  6BFC               	clrf	(__pbssBANK0+2)& (0+255),b
   549   00251C  6BFB               	clrf	(__pbssBANK0+1)& (0+255),b
   550   00251E  6BFA               	clrf	__pbssBANK0& (0+255),b
   551                           
   552                           ; Clear objects allocated to COMRAM (33 bytes)
   553   002520  EE00  F03E         	lfsr	0,__pbssCOMRAM
   554   002524  0E21               	movlw	33
   555   002526                     clear_2:
   556   002526  6AEE               	clrf	postinc0,c
   557   002528  06E8               	decf	wreg,f,c
   558   00252A  E1FD               	bnz	clear_2
   559   00252C                     end_of_initialization:
   560                           	callstack 0
   561   00252C                     __end_of__initialization:
   562                           	callstack 0
   563   00252C  9071               	bcf	int$flags,0,c	;clear compiler interrupt flag (level 1)
   564   00252E  9271               	bcf	int$flags,1,c	;clear compiler interrupt flag (level 2)
   565   002530  0E00               	movlw	low (__Lmediumconst shr (0+16))
   566   002532  6EF8               	movwf	tblptru,c
   567   002534  0100               	movlb	0
   568   002536  EF1C  F00D         	goto	_main	;jump to C main() function
   569                           
   570                           	psect	bssCOMRAM
   571   00003E                     __pbssCOMRAM:
   572                           	callstack 0
   573   00003E                     _current_block:
   574                           	callstack 0
   575   00003E                     	ds	16
   576   00004E                     _score:
   577                           	callstack 0
   578   00004E                     	ds	2
   579   000050                     _block_location_y:
   580                           	callstack 0
   581   000050                     	ds	2
   582   000052                     _block_location_x:
   583                           	callstack 0
   584   000052                     	ds	2
   585   000054                     _prev_rb3:
   586                           	callstack 0
   587   000054                     	ds	1
   588   000055                     _prev_rb2:
   589                           	callstack 0
   590   000055                     	ds	1
   591   000056                     _prev_rb1:
   592                           	callstack 0
   593   000056                     	ds	1
   594   000057                     _prev_rb0:
   595                           	callstack 0
   596   000057                     	ds	1
   597   000058                     _current_block_type:
   598                           	callstack 0
   599   000058                     	ds	1
   600   000059                     _serialLastChar:
   601                           	callstack 0
   602   000059                     	ds	1
   603   00005A                     _serialBufferLen:
   604                           	callstack 0
   605   00005A                     	ds	1
   606   00005B                     _seed:
   607                           	callstack 0
   608   00005B                     	ds	4
   609                           
   610                           	psect	dataCOMRAM
   611   00005F                     __pdataCOMRAM:
   612                           	callstack 0
   613   00005F                     _prev_rb4:
   614                           	callstack 0
   615   00005F                     	ds	1
   616   000060                     _game_speed_ticks:
   617                           	callstack 0
   618   000060                     	ds	1
   619   000061                     _block_I:
   620                           	callstack 0
   621   000061                     	ds	16
   622                           
   623                           	psect	bssBANK0
   624   0000FA                     __pbssBANK0:
   625                           	callstack 0
   626   0000FA                     _gap_position:
   627                           	callstack 0
   628   0000FA                     	ds	2
   629   0000FC                     _serialOnReadChar:
   630                           	callstack 0
   631   0000FC                     	ds	2
   632   0000FE                     _serialOnReadLine:
   633                           	callstack 0
   634   0000FE                     	ds	2
   635                           
   636                           	psect	dataBANK0
   637   000080                     __pdataBANK0:
   638                           	callstack 0
   639   000080                     _block_L:
   640                           	callstack 0
   641   000080                     	ds	16
   642   000090                     _block_J:
   643                           	callstack 0
   644   000090                     	ds	16
   645   0000A0                     _block_Z:
   646                           	callstack 0
   647   0000A0                     	ds	16
   648   0000B0                     _block_S:
   649                           	callstack 0
   650   0000B0                     	ds	16
   651   0000C0                     _block_T:
   652                           	callstack 0
   653   0000C0                     	ds	16
   654   0000D0                     _block_O:
   655                           	callstack 0
   656   0000D0                     	ds	16
   657                           
   658                           	psect	bssBANK1
   659   000100                     __pbssBANK1:
   660                           	callstack 0
   661   000100                     _serialPrintfCache:
   662                           	callstack 0
   663   000100                     	ds	16
   664   000110                     _display_matrix:
   665                           	callstack 0
   666   000110                     	ds	128
   667   000190                     _serialBuffer:
   668                           	callstack 0
   669   000190                     	ds	64
   670                           
   671                           	psect	bssBANK2
   672   000200                     __pbssBANK2:
   673                           	callstack 0
   674   000200                     _board:
   675                           	callstack 0
   676   000200                     	ds	128
   677                           
   678                           	psect	cstackBANK1
   679   0001D0                     __pcstackBANK1:
   680                           	callstack 0
   681   0001D0                     memmove@c:
   682                           	callstack 0
   683   0001D0                     ??_check_for_full_rows:
   684                           
   685                           ; 1 bytes @ 0x0
   686   0001D0                     	ds	1
   687   0001D1                     memmove@s:
   688                           	callstack 0
   689                           
   690                           ; 3 bytes @ 0x1
   691   0001D1                     	ds	3
   692   0001D4                     memmove@d:
   693                           	callstack 0
   694                           
   695                           ; 3 bytes @ 0x4
   696   0001D4                     	ds	4
   697   0001D8                     check_for_full_rows@row_is_full:
   698                           	callstack 0
   699                           
   700                           ; 1 bytes @ 0x8
   701   0001D8                     	ds	1
   702   0001D9                     check_for_full_rows@j:
   703                           	callstack 0
   704                           
   705                           ; 2 bytes @ 0x9
   706   0001D9                     	ds	2
   707   0001DB                     check_for_full_rows@n:
   708                           	callstack 0
   709                           
   710                           ; 2 bytes @ 0xB
   711   0001DB                     	ds	2
   712   0001DD                     check_for_full_rows@j_944:
   713                           	callstack 0
   714                           
   715                           ; 2 bytes @ 0xD
   716   0001DD                     	ds	2
   717   0001DF                     check_for_full_rows@i:
   718                           	callstack 0
   719                           
   720                           ; 2 bytes @ 0xF
   721   0001DF                     	ds	2
   722   0001E1                     check_for_full_rows@j_943:
   723                           	callstack 0
   724                           
   725                           ; 2 bytes @ 0x11
   726   0001E1                     	ds	2
   727   0001E3                     generate_garbage@line_count:
   728                           	callstack 0
   729                           
   730                           ; 2 bytes @ 0x13
   731   0001E3                     	ds	2
   732   0001E5                     ??_check_inputs:
   733                           
   734                           ; 1 bytes @ 0x15
   735   0001E5                     	ds	1
   736   0001E6                     ??_main:
   737                           
   738                           ; 1 bytes @ 0x16
   739   0001E6                     	ds	1
   740   0001E7                     main@t:
   741                           	callstack 0
   742                           
   743                           ; 1 bytes @ 0x17
   744   0001E7                     	ds	1
   745   0001E8                     main@row:
   746                           	callstack 0
   747                           
   748                           ; 1 bytes @ 0x18
   749   0001E8                     	ds	1
   750                           
   751                           	psect	cstackBANK0
   752   0000E0                     __pcstackBANK0:
   753                           	callstack 0
   754   0000E0                     ?___lmul:
   755                           	callstack 0
   756   0000E0                     ?___aldiv:
   757                           	callstack 0
   758   0000E0                     serialPrint@text:
   759                           	callstack 0
   760   0000E0                     set_current_block@b:
   761                           	callstack 0
   762   0000E0                     update_score@x:
   763                           	callstack 0
   764   0000E0                     memmove@d1:
   765                           	callstack 0
   766   0000E0                     memset@dest:
   767                           	callstack 0
   768   0000E0                     srand@s:
   769                           	callstack 0
   770   0000E0                     ___lmul@multiplier:
   771                           	callstack 0
   772   0000E0                     ___aldiv@dividend:
   773                           	callstack 0
   774   0000E0                     ??_SPI_Write_Byte:
   775   0000E0                     ??_rotate_current_block:
   776   0000E0                     ??_current_block_is_in_illegal_position:
   777   0000E0                     ??_solidify_current_block:
   778   0000E0                     ??_compose_board:
   779                           
   780                           ; 1 bytes @ 0x0
   781   0000E0                     	ds	1
   782   0000E1                     rotate_current_block@d:
   783                           	callstack 0
   784   0000E1                     set_current_block@i:
   785                           	callstack 0
   786   0000E1                     ??_serialPrint:
   787   0000E1                     
   788                           ; 1 bytes @ 0x1
   789   0000E1                     	ds	1
   790   0000E2                     SPI_Write_Byte@data:
   791                           	callstack 0
   792   0000E2                     rotate_current_block@temp:
   793                           	callstack 0
   794   0000E2                     serialPrint@i:
   795                           	callstack 0
   796   0000E2                     update_score@n:
   797                           	callstack 0
   798   0000E2                     memmove@s1:
   799                           	callstack 0
   800   0000E2                     memset@c:
   801                           	callstack 0
   802   0000E2                     ??_srand:
   803                           
   804                           ; 1 bytes @ 0x2
   805   0000E2                     	ds	1
   806   0000E3                     rotate_current_block@temp_926:
   807                           	callstack 0
   808   0000E3                     SPI_Write_Byte@i:
   809                           	callstack 0
   810   0000E3                     set_current_block@j:
   811                           	callstack 0
   812                           
   813                           ; 2 bytes @ 0x3
   814   0000E3                     	ds	1
   815   0000E4                     rotate_current_block@temp_927:
   816                           	callstack 0
   817   0000E4                     update_score@i:
   818                           	callstack 0
   819   0000E4                     current_block_is_in_illegal_position@x:
   820                           	callstack 0
   821   0000E4                     solidify_current_block@x:
   822                           	callstack 0
   823   0000E4                     memmove@n:
   824                           	callstack 0
   825   0000E4                     memset@n:
   826                           	callstack 0
   827   0000E4                     ___lmul@multiplicand:
   828                           	callstack 0
   829   0000E4                     ___aldiv@divisor:
   830                           	callstack 0
   831                           
   832                           ; 4 bytes @ 0x4
   833   0000E4                     	ds	1
   834   0000E5                     MAX7219_Write_All@data:
   835                           	callstack 0
   836   0000E5                     rotate_current_block@j_924:
   837                           	callstack 0
   838   0000E5                     ??_update_display:
   839                           
   840                           ; 1 bytes @ 0x5
   841   0000E5                     	ds	1
   842   0000E6                     MAX7219_Write_All@reg:
   843                           	callstack 0
   844   0000E6                     current_block_is_in_illegal_position@y:
   845                           	callstack 0
   846   0000E6                     solidify_current_block@y:
   847                           	callstack 0
   848   0000E6                     memset@p:
   849                           	callstack 0
   850   0000E6                     ??_memmove:
   851   0000E6                     ??_reset_game:
   852                           
   853                           ; 1 bytes @ 0x6
   854   0000E6                     	ds	1
   855   0000E7                     MAX7219_Write_All@i:
   856                           	callstack 0
   857   0000E7                     rotate_current_block@k:
   858                           	callstack 0
   859                           
   860                           ; 2 bytes @ 0x7
   861   0000E7                     	ds	1
   862   0000E8                     ___aldiv@counter:
   863                           	callstack 0
   864   0000E8                     current_block_is_in_illegal_position@i:
   865                           	callstack 0
   866   0000E8                     solidify_current_block@i:
   867                           	callstack 0
   868   0000E8                     compose_board@x:
   869                           	callstack 0
   870   0000E8                     ___lmul@product:
   871                           	callstack 0
   872   0000E8                     
   873                           ; 1 bytes @ 0x8
   874   0000E8                     	ds	1
   875   0000E9                     update_display@pattern_bot:
   876                           	callstack 0
   877   0000E9                     ___aldiv@sign:
   878                           	callstack 0
   879   0000E9                     MAX7219_Init@i:
   880                           	callstack 0
   881   0000E9                     rotate_current_block@j:
   882                           	callstack 0
   883   0000E9                     
   884                           ; 1 bytes @ 0x9
   885   0000E9                     	ds	1
   886   0000EA                     update_display@pattern_top:
   887                           	callstack 0
   888   0000EA                     current_block_is_in_illegal_position@j:
   889                           	callstack 0
   890   0000EA                     solidify_current_block@j:
   891                           	callstack 0
   892   0000EA                     reset_game@i:
   893                           	callstack 0
   894   0000EA                     compose_board@y:
   895                           	callstack 0
   896   0000EA                     ___aldiv@quotient:
   897                           	callstack 0
   898                           
   899                           ; 4 bytes @ 0xA
   900   0000EA                     	ds	1
   901   0000EB                     update_display@col:
   902                           	callstack 0
   903   0000EB                     rotate_current_block@i:
   904                           	callstack 0
   905                           
   906                           ; 2 bytes @ 0xB
   907   0000EB                     	ds	1
   908   0000EC                     ?_rand:
   909                           	callstack 0
   910   0000EC                     reset_game@j:
   911                           	callstack 0
   912   0000EC                     compose_board@i:
   913                           	callstack 0
   914                           
   915                           ; 2 bytes @ 0xC
   916   0000EC                     	ds	1
   917   0000ED                     update_display@col_884:
   918                           	callstack 0
   919   0000ED                     rotate_current_block@i_923:
   920                           	callstack 0
   921                           
   922                           ; 2 bytes @ 0xD
   923   0000ED                     	ds	1
   924   0000EE                     compose_board@j:
   925                           	callstack 0
   926   0000EE                     serialBegin@baudRate:
   927                           	callstack 0
   928   0000EE                     ??_rand:
   929                           
   930                           ; 1 bytes @ 0xE
   931   0000EE                     	ds	1
   932   0000EF                     update_display@row_addr:
   933                           	callstack 0
   934                           
   935                           ; 2 bytes @ 0xF
   936   0000EF                     	ds	1
   937   0000F0                     compose_board@i_955:
   938                           	callstack 0
   939                           
   940                           ; 2 bytes @ 0x10
   941   0000F0                     	ds	2
   942   0000F2                     ?___awmod:
   943                           	callstack 0
   944   0000F2                     serialBegin@receiveInterruptPriority:
   945                           	callstack 0
   946   0000F2                     compose_board@j_956:
   947                           	callstack 0
   948   0000F2                     ___awmod@dividend:
   949                           	callstack 0
   950                           
   951                           ; 2 bytes @ 0x12
   952   0000F2                     	ds	1
   953   0000F3                     ??_serialBegin:
   954                           
   955                           ; 1 bytes @ 0x13
   956   0000F3                     	ds	1
   957   0000F4                     ___awmod@divisor:
   958                           	callstack 0
   959   0000F4                     serialBegin@baudRateGenerator:
   960                           	callstack 0
   961                           
   962                           ; 4 bytes @ 0x14
   963   0000F4                     	ds	2
   964   0000F6                     ___awmod@counter:
   965                           	callstack 0
   966   0000F6                     
   967                           ; 1 bytes @ 0x16
   968   0000F6                     	ds	1
   969   0000F7                     ___awmod@sign:
   970                           	callstack 0
   971                           
   972                           ; 1 bytes @ 0x17
   973   0000F7                     	ds	1
   974   0000F8                     drop_block_from_sky@r:
   975                           	callstack 0
   976   0000F8                     
   977                           ; 1 bytes @ 0x18
   978   0000F8                     	ds	2
   979   0000FA                     
   980                           ; 1 bytes @ 0x1A
   981                           
   982                           	psect	cstackCOMRAM
   983   000001                     __pcstackCOMRAM:
   984                           	callstack 0
   985   000001                     ?i1___lmul:
   986                           	callstack 0
   987   000001                     serialWrite@c:
   988                           	callstack 0
   989   000001                     i1set_current_block@b:
   990                           	callstack 0
   991   000001                     i1update_score@x:
   992                           	callstack 0
   993   000001                     i1memmove@d1:
   994                           	callstack 0
   995   000001                     i1memset@dest:
   996                           	callstack 0
   997   000001                     i1___lmul@multiplier:
   998                           	callstack 0
   999   000001                     ??i1_current_block_is_in_illegal_position:
  1000   000001                     ??i1_solidify_current_block:
  1001                           
  1002                           ; 1 bytes @ 0x0
  1003   000001                     	ds	1
  1004   000002                     i1set_current_block@i:
  1005                           	callstack 0
  1006   000002                     
  1007                           ; 1 bytes @ 0x1
  1008   000002                     	ds	1
  1009   000003                     i1update_score@n:
  1010                           	callstack 0
  1011   000003                     i1memmove@s1:
  1012                           	callstack 0
  1013   000003                     i1memset@c:
  1014                           	callstack 0
  1015                           
  1016                           ; 2 bytes @ 0x2
  1017   000003                     	ds	1
  1018   000004                     i1set_current_block@j:
  1019                           	callstack 0
  1020                           
  1021                           ; 2 bytes @ 0x3
  1022   000004                     	ds	1
  1023   000005                     i1update_score@i:
  1024                           	callstack 0
  1025   000005                     i1current_block_is_in_illegal_position@x:
  1026                           	callstack 0
  1027   000005                     i1solidify_current_block@x:
  1028                           	callstack 0
  1029   000005                     i1memmove@n:
  1030                           	callstack 0
  1031   000005                     i1memset@n:
  1032                           	callstack 0
  1033   000005                     i1___lmul@multiplicand:
  1034                           	callstack 0
  1035                           
  1036                           ; 4 bytes @ 0x4
  1037   000005                     	ds	2
  1038   000007                     i1current_block_is_in_illegal_position@y:
  1039                           	callstack 0
  1040   000007                     i1solidify_current_block@y:
  1041                           	callstack 0
  1042   000007                     i1memset@p:
  1043                           	callstack 0
  1044   000007                     ??i1_reset_game:
  1045   000007                     ??i1_memmove:
  1046   000007                     
  1047                           ; 1 bytes @ 0x6
  1048   000007                     	ds	2
  1049   000009                     i1current_block_is_in_illegal_position@i:
  1050                           	callstack 0
  1051   000009                     i1solidify_current_block@i:
  1052                           	callstack 0
  1053   000009                     i1___lmul@product:
  1054                           	callstack 0
  1055   000009                     
  1056                           ; 1 bytes @ 0x8
  1057   000009                     	ds	2
  1058   00000B                     i1current_block_is_in_illegal_position@j:
  1059                           	callstack 0
  1060   00000B                     i1solidify_current_block@j:
  1061                           	callstack 0
  1062   00000B                     i1reset_game@i:
  1063                           	callstack 0
  1064                           
  1065                           ; 2 bytes @ 0xA
  1066   00000B                     	ds	2
  1067   00000D                     ?i1_rand:
  1068                           	callstack 0
  1069   00000D                     i1reset_game@j:
  1070                           	callstack 0
  1071                           
  1072                           ; 2 bytes @ 0xC
  1073   00000D                     	ds	2
  1074   00000F                     ??i1_rand:
  1075                           
  1076                           ; 1 bytes @ 0xE
  1077   00000F                     	ds	4
  1078   000013                     ?i1___awmod:
  1079                           	callstack 0
  1080   000013                     i1___awmod@dividend:
  1081                           	callstack 0
  1082                           
  1083                           ; 2 bytes @ 0x12
  1084   000013                     	ds	2
  1085   000015                     i1___awmod@divisor:
  1086                           	callstack 0
  1087                           
  1088                           ; 2 bytes @ 0x14
  1089   000015                     	ds	2
  1090   000017                     i1___awmod@counter:
  1091                           	callstack 0
  1092   000017                     
  1093                           ; 1 bytes @ 0x16
  1094   000017                     	ds	1
  1095   000018                     i1___awmod@sign:
  1096                           	callstack 0
  1097                           
  1098                           ; 1 bytes @ 0x17
  1099   000018                     	ds	1
  1100   000019                     i1memmove@c:
  1101                           	callstack 0
  1102   000019                     i1drop_block_from_sky@r:
  1103                           	callstack 0
  1104   000019                     ??i1_check_for_full_rows:
  1105   000019                     
  1106                           ; 1 bytes @ 0x18
  1107   000019                     	ds	1
  1108   00001A                     i1memmove@s:
  1109                           	callstack 0
  1110                           
  1111                           ; 3 bytes @ 0x19
  1112   00001A                     	ds	3
  1113   00001D                     i1memmove@d:
  1114                           	callstack 0
  1115                           
  1116                           ; 3 bytes @ 0x1C
  1117   00001D                     	ds	4
  1118   000021                     i1check_for_full_rows@row_is_full:
  1119                           	callstack 0
  1120                           
  1121                           ; 1 bytes @ 0x20
  1122   000021                     	ds	1
  1123   000022                     i1check_for_full_rows@j:
  1124                           	callstack 0
  1125                           
  1126                           ; 2 bytes @ 0x21
  1127   000022                     	ds	2
  1128   000024                     i1check_for_full_rows@n:
  1129                           	callstack 0
  1130                           
  1131                           ; 2 bytes @ 0x23
  1132   000024                     	ds	2
  1133   000026                     i1check_for_full_rows@j_944:
  1134                           	callstack 0
  1135                           
  1136                           ; 2 bytes @ 0x25
  1137   000026                     	ds	2
  1138   000028                     i1check_for_full_rows@i:
  1139                           	callstack 0
  1140                           
  1141                           ; 2 bytes @ 0x27
  1142   000028                     	ds	2
  1143   00002A                     i1check_for_full_rows@j_943:
  1144                           	callstack 0
  1145                           
  1146                           ; 2 bytes @ 0x29
  1147   00002A                     	ds	2
  1148   00002C                     i1generate_garbage@line_count:
  1149                           	callstack 0
  1150                           
  1151                           ; 2 bytes @ 0x2B
  1152   00002C                     	ds	2
  1153   00002E                     onReadLine@line:
  1154                           	callstack 0
  1155   00002E                     
  1156                           ; 1 bytes @ 0x2D
  1157   00002E                     	ds	2
  1158   000030                     onReadLine@len:
  1159                           	callstack 0
  1160                           
  1161                           ; 1 bytes @ 0x2F
  1162   000030                     	ds	1
  1163   000031                     
  1164                           ; 1 bytes @ 0x30
  1165   000031                     	ds	1
  1166   000032                     processSerialReceive@c:
  1167                           	callstack 0
  1168   000032                     
  1169                           ; 1 bytes @ 0x31
  1170   000032                     	ds	1
  1171   000033                     ??_Lo_ISR:
  1172                           
  1173                           ; 1 bytes @ 0x32
  1174   000033                     	ds	11
  1175                           
  1176 ;;
  1177 ;;Main: autosize = 0, tempsize = 1, incstack = 0, save=0
  1178 ;;
  1179 ;; *************** function _main *****************
  1180 ;; Defined at:
  1181 ;;		line 111 in file "tetris.c"
  1182 ;; Parameters:    Size  Location     Type
  1183 ;;		None
  1184 ;; Auto vars:     Size  Location     Type
  1185 ;;  t               1   23[BANK1 ] unsigned char 
  1186 ;;  row             1   24[BANK1 ] unsigned char 
  1187 ;; Return value:  Size  Location     Type
  1188 ;;                  1    wreg      void 
  1189 ;; Registers used:
  1190 ;;		wreg, fsr1l, fsr1h, fsr2l, fsr2h, status,2, status,0, tblptrl, tblptrh, tblptru, prodl, prodh, cstack
  1191 ;; Tracked objects:
  1192 ;;		On entry : 0/0
  1193 ;;		On exit  : 0/0
  1194 ;;		Unchanged: 0/0
  1195 ;; Data sizes:     COMRAM   BANK0   BANK1   BANK2   BANK3   BANK4   BANK5
  1196 ;;      Params:         0       0       0       0       0       0       0
  1197 ;;      Locals:         0       0       2       0       0       0       0
  1198 ;;      Temps:          0       0       1       0       0       0       0
  1199 ;;      Totals:         0       0       3       0       0       0       0
  1200 ;;Total ram usage:        3 bytes
  1201 ;; Hardware stack levels required when called: 12
  1202 ;; This function calls:
  1203 ;;		_MAX7219_Init
  1204 ;;		_MAX7219_Write_All
  1205 ;;		_MCU_Init
  1206 ;;		___awmod
  1207 ;;		_check_inputs
  1208 ;;		_compose_board
  1209 ;;		_drop_block_from_sky
  1210 ;;		_game_step
  1211 ;;		_rand
  1212 ;;		_reset_game
  1213 ;;		_serialBegin
  1214 ;;		_serialPrint
  1215 ;;		_srand
  1216 ;;		_update_display
  1217 ;; This function is called by:
  1218 ;;		Startup code after reset
  1219 ;; This function uses a non-reentrant model
  1220 ;;
  1221                           
  1222                           	psect	text0
  1223   001A38                     __ptext0:
  1224                           	callstack 0
  1225   001A38                     _main:
  1226                           	callstack 19
  1227   001A38                     
  1228                           ;tetris.c: 112:     OSCCONbits.IRCF = 0b111;
  1229   001A38  0E70               	movlw	112
  1230   001A3A  12D3               	iorwf	211,f,c	;volatile
  1231                           
  1232                           ;tetris.c: 115:     ADCON1 = 0x0F;
  1233   001A3C  0E0F               	movlw	15
  1234   001A3E  6EC1               	movwf	193,c	;volatile
  1235   001A40                     
  1236                           ;tetris.c: 116:     TRISBbits.TRISB0 = 1;
  1237   001A40  8093               	bsf	147,0,c	;volatile
  1238   001A42                     
  1239                           ;tetris.c: 117:     TRISBbits.TRISB1 = 1;
  1240   001A42  8293               	bsf	147,1,c	;volatile
  1241   001A44                     
  1242                           ;tetris.c: 118:     TRISBbits.TRISB2 = 1;
  1243   001A44  8493               	bsf	147,2,c	;volatile
  1244   001A46                     
  1245                           ;tetris.c: 119:     TRISBbits.TRISB3 = 1;
  1246   001A46  8693               	bsf	147,3,c	;volatile
  1247   001A48                     
  1248                           ;tetris.c: 120:     TRISBbits.TRISB4 = 1;
  1249   001A48  8893               	bsf	147,4,c	;volatile
  1250   001A4A                     
  1251                           ;tetris.c: 121:     TRISDbits.TRISD7 = 0;
  1252   001A4A  9E95               	bcf	149,7,c	;volatile
  1253   001A4C                     
  1254                           ;tetris.c: 122:     TRISDbits.TRISD6 = 0;
  1255   001A4C  9C95               	bcf	149,6,c	;volatile
  1256   001A4E                     
  1257                           ;tetris.c: 123:     TRISDbits.TRISD5 = 0;
  1258   001A4E  9A95               	bcf	149,5,c	;volatile
  1259   001A50                     
  1260                           ;tetris.c: 124:     LATD = 0x00;
  1261   001A50  6A8C               	clrf	140,c	;volatile
  1262   001A52                     
  1263                           ;tetris.c: 125:     MCU_Init();
  1264   001A52  ECCA  F015         	call	_MCU_Init	;wreg free
  1265   001A56                     
  1266                           ;tetris.c: 126:     MAX7219_Init();
  1267   001A56  EC4E  F013         	call	_MAX7219_Init	;wreg free
  1268   001A5A                     
  1269                           ;tetris.c: 129:     RCONbits.IPEN = 1;
  1270   001A5A  8ED0               	bsf	208,7,c	;volatile
  1271   001A5C                     
  1272                           ;tetris.c: 130:     INTCONbits.GIE = 1;
  1273   001A5C  8EF2               	bsf	242,7,c	;volatile
  1274   001A5E                     
  1275                           ;tetris.c: 131:     INTCONbits.PEIE = 1;
  1276   001A5E  8CF2               	bsf	242,6,c	;volatile
  1277   001A60                     
  1278                           ;tetris.c: 133:     serialBegin(9600, 0b0);
  1279   001A60  0E80               	movlw	128
  1280   001A62  0100               	movlb	0	; () banked
  1281   001A64  6FEE               	movwf	serialBegin@baudRate& (0+255),b
  1282   001A66  0E25               	movlw	37
  1283   001A68  6FEF               	movwf	(serialBegin@baudRate+1)& (0+255),b
  1284   001A6A  0E00               	movlw	0
  1285   001A6C  6FF0               	movwf	(serialBegin@baudRate+2)& (0+255),b
  1286   001A6E  0E00               	movlw	0
  1287   001A70  6FF1               	movwf	(serialBegin@baudRate+3)& (0+255),b
  1288   001A72  0E00               	movlw	0
  1289   001A74  6FF2               	movwf	serialBegin@receiveInterruptPriority& (0+255),b
  1290   001A76  ECD0  F008         	call	_serialBegin	;wreg free
  1291   001A7A                     
  1292                           ;tetris.c: 134:     serialOnReadLine = onReadLine;
  1293   001A7A  0E4C               	movlw	low _onReadLine
  1294   001A7C  0100               	movlb	0	; () banked
  1295   001A7E  6FFE               	movwf	_serialOnReadLine& (0+255),b
  1296   001A80  0E2B               	movlw	high _onReadLine
  1297   001A82  6FFF               	movwf	(_serialOnReadLine+1)& (0+255),b
  1298   001A84                     
  1299                           ; BSR set to: 0
  1300                           ;tetris.c: 135:     serialOnReadChar = onReadChar;
  1301   001A84  0EE4               	movlw	low _onReadChar
  1302   001A86  6FFC               	movwf	_serialOnReadChar& (0+255),b
  1303   001A88  0E2B               	movlw	high _onReadChar
  1304   001A8A  6FFD               	movwf	(_serialOnReadChar+1)& (0+255),b
  1305   001A8C                     
  1306                           ; BSR set to: 0
  1307                           ;tetris.c: 136:     serialPrint("\x1B[2J\x1B[H\x1B[3J");
  1308   001A8C  0E0F               	movlw	low STR_1
  1309   001A8E  6FE0               	movwf	serialPrint@text& (0+255),b
  1310   001A90  ECF8  F014         	call	_serialPrint	;wreg free
  1311   001A94                     
  1312                           ;tetris.c: 137:     serialPrint("TETRIS PIG!\r\n");
  1313   001A94  0E01               	movlw	low STR_2
  1314   001A96  0100               	movlb	0	; () banked
  1315   001A98  6FE0               	movwf	serialPrint@text& (0+255),b
  1316   001A9A  ECF8  F014         	call	_serialPrint	;wreg free
  1317   001A9E                     
  1318                           ;tetris.c: 140:     for (uint8_t row = 1; row <= 8; row++) {
  1319   001A9E  0E01               	movlw	1
  1320   001AA0  0101               	movlb	1	; () banked
  1321   001AA2  6FE8               	movwf	main@row& (0+255),b
  1322   001AA4                     l4522:
  1323                           
  1324                           ; BSR set to: 1
  1325                           ;tetris.c: 141:         MAX7219_Write_All(row, 0x00);
  1326   001AA4  0E00               	movlw	0
  1327   001AA6  0100               	movlb	0	; () banked
  1328   001AA8  6FE5               	movwf	MAX7219_Write_All@data& (0+255),b
  1329   001AAA  0101               	movlb	1	; () banked
  1330   001AAC  51E8               	movf	main@row& (0+255),w,b
  1331   001AAE  EC49  F015         	call	_MAX7219_Write_All
  1332   001AB2                     
  1333                           ;tetris.c: 142:     }
  1334   001AB2  0101               	movlb	1	; () banked
  1335   001AB4  2BE8               	incf	main@row& (0+255),f,b
  1336   001AB6                     
  1337                           ; BSR set to: 1
  1338   001AB6  0E08               	movlw	8
  1339   001AB8  65E8               	cpfsgt	main@row& (0+255),b
  1340   001ABA  EF61  F00D         	goto	u5351
  1341   001ABE  EF63  F00D         	goto	u5350
  1342   001AC2                     u5351:
  1343   001AC2  EF52  F00D         	goto	l4522
  1344   001AC6                     u5350:
  1345   001AC6                     
  1346                           ; BSR set to: 1
  1347                           ;tetris.c: 145:     srand(1);
  1348   001AC6  0E00               	movlw	0
  1349   001AC8  0100               	movlb	0	; () banked
  1350   001ACA  6FE1               	movwf	(srand@s+1)& (0+255),b
  1351   001ACC  0E01               	movlw	1
  1352   001ACE  6FE0               	movwf	srand@s& (0+255),b
  1353   001AD0  ECBC  F015         	call	_srand	;wreg free
  1354   001AD4                     
  1355                           ;tetris.c: 146:     reset_game();
  1356   001AD4  EC55  F010         	call	_reset_game	;wreg free
  1357   001AD8                     
  1358                           ;tetris.c: 147:     drop_block_from_sky();
  1359   001AD8  EC34  F00E         	call	_drop_block_from_sky	;wreg free
  1360   001ADC                     
  1361                           ;tetris.c: 148:     compose_board();
  1362   001ADC  EC02  F007         	call	_compose_board	;wreg free
  1363   001AE0                     
  1364                           ;tetris.c: 149:     update_display();
  1365   001AE0  EC31  F00B         	call	_update_display	;wreg free
  1366                           
  1367                           ;tetris.c: 151:     gap_position = (rand() % 5) + 2;
  1368   001AE4  ECC1  F013         	call	_rand	;wreg free
  1369   001AE8  C0EC  F0F2         	movff	?_rand,___awmod@dividend
  1370   001AEC  C0ED  F0F3         	movff	?_rand+1,___awmod@dividend+1
  1371   001AF0  0E00               	movlw	0
  1372   001AF2  0100               	movlb	0	; () banked
  1373   001AF4  6FF5               	movwf	(___awmod@divisor+1)& (0+255),b
  1374   001AF6  0E05               	movlw	5
  1375   001AF8  6FF4               	movwf	___awmod@divisor& (0+255),b
  1376   001AFA  EC20  F011         	call	___awmod	;wreg free
  1377   001AFE  0E02               	movlw	2
  1378   001B00  0100               	movlb	0	; () banked
  1379   001B02  25F2               	addwf	?___awmod& (0+255),w,b
  1380   001B04  6FFA               	movwf	_gap_position& (0+255),b
  1381   001B06  0E00               	movlw	0
  1382   001B08  21F3               	addwfc	(?___awmod+1)& (0+255),w,b
  1383   001B0A  6FFB               	movwf	(_gap_position+1)& (0+255),b
  1384   001B0C                     l4538:
  1385                           
  1386                           ;tetris.c: 155:         for (uint8_t t = 0; t < game_speed_ticks; t++) {
  1387   001B0C  0101               	movlb	1	; () banked
  1388   001B0E  6BE7               	clrf	main@t& (0+255),b
  1389   001B10  EF9B  F00D         	goto	l4548
  1390   001B14                     l4540:
  1391                           
  1392                           ; BSR set to: 1
  1393                           ;tetris.c: 157:             check_inputs();
  1394   001B14  EC0E  F003         	call	_check_inputs	;wreg free
  1395                           
  1396                           ;tetris.c: 159:             compose_board();
  1397   001B18  EC02  F007         	call	_compose_board	;wreg free
  1398   001B1C                     
  1399                           ;tetris.c: 160:             update_display();
  1400   001B1C  EC31  F00B         	call	_update_display	;wreg free
  1401   001B20                     
  1402                           ;tetris.c: 161:             _delay((unsigned long)((10)*(8000000/4000.0)));
  1403   001B20  0E1A               	movlw	26
  1404   001B22  0101               	movlb	1	; () banked
  1405   001B24  6FE6               	movwf	??_main& (0+255),b
  1406   001B26  0EF8               	movlw	248
  1407   001B28                     u5377:
  1408   001B28  2EE8               	decfsz	wreg,f,c
  1409   001B2A  D7FE               	bra	u5377
  1410   001B2C  2FE6               	decfsz	??_main& (0+255),f,b
  1411   001B2E  D7FC               	bra	u5377
  1412   001B30  0000               	nop	
  1413   001B32                     
  1414                           ;tetris.c: 162:         }
  1415   001B32  0101               	movlb	1	; () banked
  1416   001B34  2BE7               	incf	main@t& (0+255),f,b
  1417   001B36                     l4548:
  1418                           
  1419                           ; BSR set to: 1
  1420   001B36  5060               	movf	_game_speed_ticks^0,w,c
  1421   001B38  5DE7               	subwf	main@t& (0+255),w,b
  1422   001B3A  A0D8               	btfss	status,0,c
  1423   001B3C  EFA2  F00D         	goto	u5361
  1424   001B40  EFA4  F00D         	goto	u5360
  1425   001B44                     u5361:
  1426   001B44  EF8A  F00D         	goto	l4540
  1427   001B48                     u5360:
  1428   001B48                     
  1429                           ; BSR set to: 1
  1430                           ;tetris.c: 165:         game_step();
  1431   001B48  EC25  F015         	call	_game_step	;wreg free
  1432   001B4C  EF86  F00D         	goto	l4538
  1433   001B50  EF3D  F000         	goto	start
  1434   001B54                     __end_of_main:
  1435                           	callstack 0
  1436                           
  1437 ;; *************** function _update_display *****************
  1438 ;; Defined at:
  1439 ;;		line 95 in file "./display.h"
  1440 ;; Parameters:    Size  Location     Type
  1441 ;;		None
  1442 ;; Auto vars:     Size  Location     Type
  1443 ;;  col             2   13[BANK0 ] int 
  1444 ;;  col             2   11[BANK0 ] int 
  1445 ;;  pattern_top     1   10[BANK0 ] unsigned char 
  1446 ;;  pattern_bot     1    9[BANK0 ] unsigned char 
  1447 ;;  row_addr        2   15[BANK0 ] int 
  1448 ;; Return value:  Size  Location     Type
  1449 ;;                  1    wreg      void 
  1450 ;; Registers used:
  1451 ;;		wreg, fsr2l, fsr2h, status,2, status,0, cstack
  1452 ;; Tracked objects:
  1453 ;;		On entry : 0/0
  1454 ;;		On exit  : 0/0
  1455 ;;		Unchanged: 0/0
  1456 ;; Data sizes:     COMRAM   BANK0   BANK1   BANK2   BANK3   BANK4   BANK5
  1457 ;;      Params:         0       0       0       0       0       0       0
  1458 ;;      Locals:         0       8       0       0       0       0       0
  1459 ;;      Temps:          0       4       0       0       0       0       0
  1460 ;;      Totals:         0      12       0       0       0       0       0
  1461 ;;Total ram usage:       12 bytes
  1462 ;; Hardware stack levels used: 1
  1463 ;; Hardware stack levels required when called: 8
  1464 ;; This function calls:
  1465 ;;		_SPI_Write_Byte
  1466 ;; This function is called by:
  1467 ;;		_main
  1468 ;; This function uses a non-reentrant model
  1469 ;;
  1470                           
  1471                           	psect	text1
  1472   001662                     __ptext1:
  1473                           	callstack 0
  1474   001662                     _update_display:
  1475                           	callstack 22
  1476   001662                     
  1477                           ;./display.h: 97:     for (int row_addr = 0; row_addr < 8; row_addr++) {
  1478   001662  0E00               	movlw	0
  1479   001664  0100               	movlb	0	; () banked
  1480   001666  6FF0               	movwf	(update_display@row_addr+1)& (0+255),b
  1481   001668  0E00               	movlw	0
  1482   00166A  6FEF               	movwf	update_display@row_addr& (0+255),b
  1483   00166C                     l137:
  1484                           
  1485                           ; BSR set to: 0
  1486                           ;./display.h: 100:         uint8_t pattern_bot = 0;
  1487   00166C  6BE9               	clrf	update_display@pattern_bot& (0+255),b
  1488   00166E                     
  1489                           ; BSR set to: 0
  1490                           ;./display.h: 101:         for (int col = 0; col < 8; col++) {
  1491   00166E  0E00               	movlw	0
  1492   001670  6FEC               	movwf	(update_display@col+1)& (0+255),b
  1493   001672  0E00               	movlw	0
  1494   001674  6FEB               	movwf	update_display@col& (0+255),b
  1495   001676                     l4294:
  1496                           
  1497                           ; BSR set to: 0
  1498                           ;./display.h: 102:             if (board[row_addr][col]) {
  1499   001676  C0EF  F0E5         	movff	update_display@row_addr,??_update_display
  1500   00167A  C0F0  F0E6         	movff	update_display@row_addr+1,??_update_display+1
  1501   00167E  90D8               	bcf	status,0,c
  1502   001680  37E5               	rlcf	??_update_display& (0+255),f,b
  1503   001682  37E6               	rlcf	(??_update_display+1)& (0+255),f,b
  1504   001684  90D8               	bcf	status,0,c
  1505   001686  37E5               	rlcf	??_update_display& (0+255),f,b
  1506   001688  37E6               	rlcf	(??_update_display+1)& (0+255),f,b
  1507   00168A  90D8               	bcf	status,0,c
  1508   00168C  37E5               	rlcf	??_update_display& (0+255),f,b
  1509   00168E  37E6               	rlcf	(??_update_display+1)& (0+255),f,b
  1510   001690  0E00               	movlw	low _board
  1511   001692  25E5               	addwf	??_update_display& (0+255),w,b
  1512   001694  6FE7               	movwf	(??_update_display+2)& (0+255),b
  1513   001696  0E02               	movlw	high _board
  1514   001698  21E6               	addwfc	(??_update_display+1)& (0+255),w,b
  1515   00169A  6FE8               	movwf	(??_update_display+3)& (0+255),b
  1516   00169C  51EB               	movf	update_display@col& (0+255),w,b
  1517   00169E  25E7               	addwf	(??_update_display+2)& (0+255),w,b
  1518   0016A0  6ED9               	movwf	fsr2l,c
  1519   0016A2  51EC               	movf	(update_display@col+1)& (0+255),w,b
  1520   0016A4  21E8               	addwfc	(??_update_display+3)& (0+255),w,b
  1521   0016A6  6EDA               	movwf	fsr2h,c
  1522   0016A8  50DF               	movf	indf2,w,c
  1523   0016AA  B4D8               	btfsc	status,2,c
  1524   0016AC  EF5A  F00B         	goto	u4911
  1525   0016B0  EF5C  F00B         	goto	u4910
  1526   0016B4                     u4911:
  1527   0016B4  EF6B  F00B         	goto	l4298
  1528   0016B8                     u4910:
  1529   0016B8                     
  1530                           ; BSR set to: 0
  1531                           ;./display.h: 103:                 pattern_bot |= (1 << col);
  1532   0016B8  C0EB  F0E5         	movff	update_display@col,??_update_display
  1533   0016BC  0E01               	movlw	1
  1534   0016BE  6FE6               	movwf	(??_update_display+1)& (0+255),b
  1535   0016C0  2BE5               	incf	??_update_display& (0+255),f,b
  1536   0016C2  EF65  F00B         	goto	u4924
  1537   0016C6                     u4925:
  1538   0016C6  90D8               	bcf	status,0,c
  1539   0016C8  37E6               	rlcf	(??_update_display+1)& (0+255),f,b
  1540   0016CA                     u4924:
  1541   0016CA  2FE5               	decfsz	??_update_display& (0+255),f,b
  1542   0016CC  EF63  F00B         	goto	u4925
  1543   0016D0  0100               	movlb	0	; () banked
  1544   0016D2  51E6               	movf	(??_update_display+1)& (0+255),w,b
  1545   0016D4  13E9               	iorwf	update_display@pattern_bot& (0+255),f,b
  1546   0016D6                     l4298:
  1547                           
  1548                           ; BSR set to: 0
  1549                           ;./display.h: 105:         }
  1550   0016D6  4BEB               	infsnz	update_display@col& (0+255),f,b
  1551   0016D8  2BEC               	incf	(update_display@col+1)& (0+255),f,b
  1552   0016DA                     
  1553                           ; BSR set to: 0
  1554   0016DA  BFEC               	btfsc	(update_display@col+1)& (0+255),7,b
  1555   0016DC  EF79  F00B         	goto	u4931
  1556   0016E0  51EC               	movf	(update_display@col+1)& (0+255),w,b
  1557   0016E2  E109               	bnz	u4930
  1558   0016E4  0E08               	movlw	8
  1559   0016E6  5DEB               	subwf	update_display@col& (0+255),w,b
  1560   0016E8  A0D8               	btfss	status,0,c
  1561   0016EA  EF79  F00B         	goto	u4931
  1562   0016EE  EF7B  F00B         	goto	u4930
  1563   0016F2                     u4931:
  1564   0016F2  EF3B  F00B         	goto	l4294
  1565   0016F6                     u4930:
  1566   0016F6                     
  1567                           ; BSR set to: 0
  1568                           ;./display.h: 108:         uint8_t pattern_top = 0;
  1569   0016F6  6BEA               	clrf	update_display@pattern_top& (0+255),b
  1570   0016F8                     
  1571                           ; BSR set to: 0
  1572                           ;./display.h: 109:         for (int col = 0; col < 8; col++) {
  1573   0016F8  0E00               	movlw	0
  1574   0016FA  6FEE               	movwf	(update_display@col_884+1)& (0+255),b
  1575   0016FC  0E00               	movlw	0
  1576   0016FE  6FED               	movwf	update_display@col_884& (0+255),b
  1577   001700                     l4308:
  1578                           
  1579                           ; BSR set to: 0
  1580                           ;./display.h: 110:             if (board[row_addr + 8][col]) {
  1581   001700  C0EF  F0E5         	movff	update_display@row_addr,??_update_display
  1582   001704  C0F0  F0E6         	movff	update_display@row_addr+1,??_update_display+1
  1583   001708  90D8               	bcf	status,0,c
  1584   00170A  37E5               	rlcf	??_update_display& (0+255),f,b
  1585   00170C  37E6               	rlcf	(??_update_display+1)& (0+255),f,b
  1586   00170E  90D8               	bcf	status,0,c
  1587   001710  37E5               	rlcf	??_update_display& (0+255),f,b
  1588   001712  37E6               	rlcf	(??_update_display+1)& (0+255),f,b
  1589   001714  90D8               	bcf	status,0,c
  1590   001716  37E5               	rlcf	??_update_display& (0+255),f,b
  1591   001718  37E6               	rlcf	(??_update_display+1)& (0+255),f,b
  1592   00171A  0E40               	movlw	low (_board+64)
  1593   00171C  25E5               	addwf	??_update_display& (0+255),w,b
  1594   00171E  6FE7               	movwf	(??_update_display+2)& (0+255),b
  1595   001720  0E02               	movlw	high (_board+64)
  1596   001722  21E6               	addwfc	(??_update_display+1)& (0+255),w,b
  1597   001724  6FE8               	movwf	(??_update_display+3)& (0+255),b
  1598   001726  51ED               	movf	update_display@col_884& (0+255),w,b
  1599   001728  25E7               	addwf	(??_update_display+2)& (0+255),w,b
  1600   00172A  6ED9               	movwf	fsr2l,c
  1601   00172C  51EE               	movf	(update_display@col_884+1)& (0+255),w,b
  1602   00172E  21E8               	addwfc	(??_update_display+3)& (0+255),w,b
  1603   001730  6EDA               	movwf	fsr2h,c
  1604   001732  50DF               	movf	indf2,w,c
  1605   001734  B4D8               	btfsc	status,2,c
  1606   001736  EF9F  F00B         	goto	u4941
  1607   00173A  EFA1  F00B         	goto	u4940
  1608   00173E                     u4941:
  1609   00173E  EFB0  F00B         	goto	l4312
  1610   001742                     u4940:
  1611   001742                     
  1612                           ; BSR set to: 0
  1613                           ;./display.h: 111:                 pattern_top |= (1 << col);
  1614   001742  C0ED  F0E5         	movff	update_display@col_884,??_update_display
  1615   001746  0E01               	movlw	1
  1616   001748  6FE6               	movwf	(??_update_display+1)& (0+255),b
  1617   00174A  2BE5               	incf	??_update_display& (0+255),f,b
  1618   00174C  EFAA  F00B         	goto	u4954
  1619   001750                     u4955:
  1620   001750  90D8               	bcf	status,0,c
  1621   001752  37E6               	rlcf	(??_update_display+1)& (0+255),f,b
  1622   001754                     u4954:
  1623   001754  2FE5               	decfsz	??_update_display& (0+255),f,b
  1624   001756  EFA8  F00B         	goto	u4955
  1625   00175A  0100               	movlb	0	; () banked
  1626   00175C  51E6               	movf	(??_update_display+1)& (0+255),w,b
  1627   00175E  13EA               	iorwf	update_display@pattern_top& (0+255),f,b
  1628   001760                     l4312:
  1629                           
  1630                           ; BSR set to: 0
  1631                           ;./display.h: 113:         }
  1632   001760  4BED               	infsnz	update_display@col_884& (0+255),f,b
  1633   001762  2BEE               	incf	(update_display@col_884+1)& (0+255),f,b
  1634   001764                     
  1635                           ; BSR set to: 0
  1636   001764  BFEE               	btfsc	(update_display@col_884+1)& (0+255),7,b
  1637   001766  EFBE  F00B         	goto	u4961
  1638   00176A  51EE               	movf	(update_display@col_884+1)& (0+255),w,b
  1639   00176C  E109               	bnz	u4960
  1640   00176E  0E08               	movlw	8
  1641   001770  5DED               	subwf	update_display@col_884& (0+255),w,b
  1642   001772  A0D8               	btfss	status,0,c
  1643   001774  EFBE  F00B         	goto	u4961
  1644   001778  EFC0  F00B         	goto	u4960
  1645   00177C                     u4961:
  1646   00177C  EF80  F00B         	goto	l4308
  1647   001780                     u4960:
  1648   001780                     
  1649                           ; BSR set to: 0
  1650                           ;./display.h: 115:         LATDbits.LATD0 = 0;
  1651   001780  908C               	bcf	140,0,c	;volatile
  1652   001782                     
  1653                           ; BSR set to: 0
  1654                           ;./display.h: 119:         SPI_Write_Byte(row_addr + 1);
  1655   001782  29EF               	incf	update_display@row_addr& (0+255),w,b
  1656   001784  ECCA  F014         	call	_SPI_Write_Byte
  1657                           
  1658                           ;./display.h: 120:         SPI_Write_Byte(pattern_top);
  1659   001788  0100               	movlb	0	; () banked
  1660   00178A  51EA               	movf	update_display@pattern_top& (0+255),w,b
  1661   00178C  ECCA  F014         	call	_SPI_Write_Byte
  1662                           
  1663                           ;./display.h: 124:         SPI_Write_Byte(row_addr + 1);
  1664   001790  0100               	movlb	0	; () banked
  1665   001792  29EF               	incf	update_display@row_addr& (0+255),w,b
  1666   001794  ECCA  F014         	call	_SPI_Write_Byte
  1667                           
  1668                           ;./display.h: 125:         SPI_Write_Byte(pattern_bot);
  1669   001798  0100               	movlb	0	; () banked
  1670   00179A  51E9               	movf	update_display@pattern_bot& (0+255),w,b
  1671   00179C  ECCA  F014         	call	_SPI_Write_Byte
  1672   0017A0                     
  1673                           ;./display.h: 127:         LATDbits.LATD0 = 1;
  1674   0017A0  808C               	bsf	140,0,c	;volatile
  1675   0017A2                     
  1676                           ;./display.h: 128:     }
  1677   0017A2  0100               	movlb	0	; () banked
  1678   0017A4  4BEF               	infsnz	update_display@row_addr& (0+255),f,b
  1679   0017A6  2BF0               	incf	(update_display@row_addr+1)& (0+255),f,b
  1680   0017A8                     
  1681                           ; BSR set to: 0
  1682   0017A8  BFF0               	btfsc	(update_display@row_addr+1)& (0+255),7,b
  1683   0017AA  EFE0  F00B         	goto	u4971
  1684   0017AE  51F0               	movf	(update_display@row_addr+1)& (0+255),w,b
  1685   0017B0  E109               	bnz	u4970
  1686   0017B2  0E08               	movlw	8
  1687   0017B4  5DEF               	subwf	update_display@row_addr& (0+255),w,b
  1688   0017B6  A0D8               	btfss	status,0,c
  1689   0017B8  EFE0  F00B         	goto	u4971
  1690   0017BC  EFE2  F00B         	goto	u4970
  1691   0017C0                     u4971:
  1692   0017C0  EF36  F00B         	goto	l137
  1693   0017C4                     u4970:
  1694   0017C4                     
  1695                           ; BSR set to: 0
  1696   0017C4  0012               	return		;funcret
  1697   0017C6                     __end_of_update_display:
  1698                           	callstack 0
  1699                           
  1700 ;; *************** function _srand *****************
  1701 ;; Defined at:
  1702 ;;		line 6 in file "C:\Program Files\Microchip\xc8\v3.00\pic\sources\c99\common\rand.c"
  1703 ;; Parameters:    Size  Location     Type
  1704 ;;  s               2    0[BANK0 ] unsigned int 
  1705 ;; Auto vars:     Size  Location     Type
  1706 ;;		None
  1707 ;; Return value:  Size  Location     Type
  1708 ;;                  1    wreg      void 
  1709 ;; Registers used:
  1710 ;;		wreg, status,2, status,0
  1711 ;; Tracked objects:
  1712 ;;		On entry : 0/0
  1713 ;;		On exit  : 0/0
  1714 ;;		Unchanged: 0/0
  1715 ;; Data sizes:     COMRAM   BANK0   BANK1   BANK2   BANK3   BANK4   BANK5
  1716 ;;      Params:         0       2       0       0       0       0       0
  1717 ;;      Locals:         0       0       0       0       0       0       0
  1718 ;;      Temps:          0       2       0       0       0       0       0
  1719 ;;      Totals:         0       4       0       0       0       0       0
  1720 ;;Total ram usage:        4 bytes
  1721 ;; Hardware stack levels used: 1
  1722 ;; Hardware stack levels required when called: 7
  1723 ;; This function calls:
  1724 ;;		Nothing
  1725 ;; This function is called by:
  1726 ;;		_main
  1727 ;; This function uses a non-reentrant model
  1728 ;;
  1729                           
  1730                           	psect	text2
  1731   002B78                     __ptext2:
  1732                           	callstack 0
  1733   002B78                     _srand:
  1734                           	callstack 23
  1735   002B78  0EFF               	movlw	255
  1736   002B7A  0100               	movlb	0	; () banked
  1737   002B7C  25E0               	addwf	srand@s& (0+255),w,b
  1738   002B7E  6FE2               	movwf	??_srand& (0+255),b
  1739   002B80  0EFF               	movlw	255
  1740   002B82  21E1               	addwfc	(srand@s+1)& (0+255),w,b
  1741   002B84  6FE3               	movwf	(??_srand+1)& (0+255),b
  1742   002B86  C0E2  F05B         	movff	??_srand,_seed
  1743   002B8A  C0E3  F05C         	movff	??_srand+1,_seed+1
  1744   002B8E  6A5D               	clrf	(_seed+2)^0,c
  1745   002B90  6A5E               	clrf	(_seed+3)^0,c
  1746   002B92                     
  1747                           ; BSR set to: 0
  1748   002B92  0012               	return		;funcret
  1749   002B94                     __end_of_srand:
  1750                           	callstack 0
  1751                           
  1752 ;; *************** function _serialPrint *****************
  1753 ;; Defined at:
  1754 ;;		line 1057 in file "./lib.h"
  1755 ;; Parameters:    Size  Location     Type
  1756 ;;  text            1    0[BANK0 ] PTR unsigned char 
  1757 ;;		 -> STR_2(14), STR_1(12), 
  1758 ;; Auto vars:     Size  Location     Type
  1759 ;;  i               2    2[BANK0 ] int 
  1760 ;; Return value:  Size  Location     Type
  1761 ;;                  1    wreg      void 
  1762 ;; Registers used:
  1763 ;;		wreg, status,2, status,0, tblptrl, tblptrh, tblptru
  1764 ;; Tracked objects:
  1765 ;;		On entry : 0/0
  1766 ;;		On exit  : 0/0
  1767 ;;		Unchanged: 0/0
  1768 ;; Data sizes:     COMRAM   BANK0   BANK1   BANK2   BANK3   BANK4   BANK5
  1769 ;;      Params:         0       1       0       0       0       0       0
  1770 ;;      Locals:         0       2       0       0       0       0       0
  1771 ;;      Temps:          0       1       0       0       0       0       0
  1772 ;;      Totals:         0       4       0       0       0       0       0
  1773 ;;Total ram usage:        4 bytes
  1774 ;; Hardware stack levels used: 1
  1775 ;; Hardware stack levels required when called: 7
  1776 ;; This function calls:
  1777 ;;		Nothing
  1778 ;; This function is called by:
  1779 ;;		_main
  1780 ;; This function uses a non-reentrant model
  1781 ;;
  1782                           
  1783                           	psect	text3
  1784   0029F0                     __ptext3:
  1785                           	callstack 0
  1786   0029F0                     _serialPrint:
  1787                           	callstack 23
  1788   0029F0                     
  1789                           ;./lib.h: 1058:     for (int i = 0; text[i] != '\0'; i++) {
  1790   0029F0  0E00               	movlw	0
  1791   0029F2  0100               	movlb	0	; () banked
  1792   0029F4  6FE3               	movwf	(serialPrint@i+1)& (0+255),b
  1793   0029F6  0E00               	movlw	0
  1794   0029F8  6FE2               	movwf	serialPrint@i& (0+255),b
  1795   0029FA  EF13  F015         	goto	l4192
  1796   0029FE                     l76:
  1797   0029FE  A2AC               	btfss	172,1,c	;volatile
  1798   002A00  EF04  F015         	goto	u4761
  1799   002A04  EF06  F015         	goto	u4760
  1800   002A08                     u4761:
  1801   002A08  EFFF  F014         	goto	l76
  1802   002A0C                     u4760:
  1803   002A0C                     
  1804                           ;./lib.h: 1060:         TXREG = text[i];
  1805   002A0C  0100               	movlb	0	; () banked
  1806   002A0E  51E0               	movf	serialPrint@text& (0+255),w,b
  1807   002A10  25E2               	addwf	serialPrint@i& (0+255),w,b
  1808   002A12  6FE1               	movwf	??_serialPrint& (0+255),b
  1809   002A14  C0E1  FFF6         	movff	??_serialPrint,tblptrl
  1810   002A18                     	if	1	;There is more than 1 active tblptr byte
  1811   002A18  0E06               	movlw	high __smallconst
  1812   002A1A  6EF7               	movwf	tblptrh,c
  1813   002A1C                     	endif
  1814   002A1C                     	if	0	;tblptru may be non-zero
  1815   002A1C                     	endif
  1816   002A1C                     	if	0	;tblptru may be non-zero
  1817   002A1C                     	endif
  1818   002A1C  0008               	tblrd		*
  1819   002A1E  CFF5 FFAD          	movff	tablat,4013	;volatile
  1820   002A22                     
  1821                           ; BSR set to: 0
  1822                           ;./lib.h: 1061:     }
  1823   002A22  4BE2               	infsnz	serialPrint@i& (0+255),f,b
  1824   002A24  2BE3               	incf	(serialPrint@i+1)& (0+255),f,b
  1825   002A26                     l4192:
  1826                           
  1827                           ; BSR set to: 0
  1828   002A26  51E0               	movf	serialPrint@text& (0+255),w,b
  1829   002A28  25E2               	addwf	serialPrint@i& (0+255),w,b
  1830   002A2A  6FE1               	movwf	??_serialPrint& (0+255),b
  1831   002A2C  C0E1  FFF6         	movff	??_serialPrint,tblptrl
  1832   002A30                     	if	1	;There is more than 1 active tblptr byte
  1833   002A30  0E06               	movlw	high __smallconst
  1834   002A32  6EF7               	movwf	tblptrh,c
  1835   002A34                     	endif
  1836   002A34                     	if	0	;tblptru may be non-zero
  1837   002A34                     	endif
  1838   002A34                     	if	0	;tblptru may be non-zero
  1839   002A34                     	endif
  1840   002A34  0008               	tblrd		*
  1841   002A36  50F5               	movf	tablat,w,c
  1842   002A38  0900               	iorlw	0
  1843   002A3A  A4D8               	btfss	status,2,c
  1844   002A3C  EF22  F015         	goto	u4771
  1845   002A40  EF24  F015         	goto	u4770
  1846   002A44                     u4771:
  1847   002A44  EFFF  F014         	goto	l76
  1848   002A48                     u4770:
  1849   002A48                     
  1850                           ; BSR set to: 0
  1851   002A48  0012               	return		;funcret
  1852   002A4A                     __end_of_serialPrint:
  1853                           	callstack 0
  1854                           
  1855 ;; *************** function _serialBegin *****************
  1856 ;; Defined at:
  1857 ;;		line 991 in file "./lib.h"
  1858 ;; Parameters:    Size  Location     Type
  1859 ;;  baudRate        4   14[BANK0 ] long 
  1860 ;;  receiveInter    1   18[BANK0 ] unsigned char 
  1861 ;; Auto vars:     Size  Location     Type
  1862 ;;  baudRateGene    4   20[BANK0 ] long 
  1863 ;; Return value:  Size  Location     Type
  1864 ;;                  1    wreg      void 
  1865 ;; Registers used:
  1866 ;;		wreg, status,2, status,0, cstack
  1867 ;; Tracked objects:
  1868 ;;		On entry : 0/0
  1869 ;;		On exit  : 0/0
  1870 ;;		Unchanged: 0/0
  1871 ;; Data sizes:     COMRAM   BANK0   BANK1   BANK2   BANK3   BANK4   BANK5
  1872 ;;      Params:         0       5       0       0       0       0       0
  1873 ;;      Locals:         0       4       0       0       0       0       0
  1874 ;;      Temps:          0       1       0       0       0       0       0
  1875 ;;      Totals:         0      10       0       0       0       0       0
  1876 ;;Total ram usage:       10 bytes
  1877 ;; Hardware stack levels used: 1
  1878 ;; Hardware stack levels required when called: 8
  1879 ;; This function calls:
  1880 ;;		___aldiv
  1881 ;; This function is called by:
  1882 ;;		_main
  1883 ;; This function uses a non-reentrant model
  1884 ;;
  1885                           
  1886                           	psect	text4
  1887   0011A0                     __ptext4:
  1888                           	callstack 0
  1889   0011A0                     _serialBegin:
  1890                           	callstack 22
  1891   0011A0                     
  1892                           ;./lib.h: 992:     TRISCbits.RC6 = 0b0;
  1893   0011A0  9C94               	bcf	148,6,c	;volatile
  1894                           
  1895                           ;./lib.h: 993:     TRISCbits.RC7 = 0b1;
  1896   0011A2  8E94               	bsf	148,7,c	;volatile
  1897                           
  1898                           ;./lib.h: 996:     TXSTAbits.SYNC = 0;
  1899   0011A4  98AC               	bcf	172,4,c	;volatile
  1900                           
  1901                           ;./lib.h: 997:     BAUDCONbits.BRG16 = 1;
  1902   0011A6  86B8               	bsf	184,3,c	;volatile
  1903   0011A8                     
  1904                           ;./lib.h: 999:     long baudRateGenerator = 8000000 / baudRate;
  1905   0011A8  0E00               	movlw	0
  1906   0011AA  0100               	movlb	0	; () banked
  1907   0011AC  6FE0               	movwf	___aldiv@dividend& (0+255),b
  1908   0011AE  0E12               	movlw	18
  1909   0011B0  6FE1               	movwf	(___aldiv@dividend+1)& (0+255),b
  1910   0011B2  0E7A               	movlw	122
  1911   0011B4  6FE2               	movwf	(___aldiv@dividend+2)& (0+255),b
  1912   0011B6  0E00               	movlw	0
  1913   0011B8  6FE3               	movwf	(___aldiv@dividend+3)& (0+255),b
  1914   0011BA  C0EE  F0E4         	movff	serialBegin@baudRate,___aldiv@divisor
  1915   0011BE  C0EF  F0E5         	movff	serialBegin@baudRate+1,___aldiv@divisor+1
  1916   0011C2  C0F0  F0E6         	movff	serialBegin@baudRate+2,___aldiv@divisor+2
  1917   0011C6  C0F1  F0E7         	movff	serialBegin@baudRate+3,___aldiv@divisor+3
  1918   0011CA  ECCF  F00F         	call	___aldiv	;wreg free
  1919   0011CE  C0E0  F0F4         	movff	?___aldiv,serialBegin@baudRateGenerator
  1920   0011D2  C0E1  F0F5         	movff	?___aldiv+1,serialBegin@baudRateGenerator+1
  1921   0011D6  C0E2  F0F6         	movff	?___aldiv+2,serialBegin@baudRateGenerator+2
  1922   0011DA  C0E3  F0F7         	movff	?___aldiv+3,serialBegin@baudRateGenerator+3
  1923   0011DE                     
  1924                           ;./lib.h: 1000:     TXSTAbits.BRGH = baudRate > 2400;
  1925   0011DE  0100               	movlb	0	; () banked
  1926   0011E0  BFF1               	btfsc	(serialBegin@baudRate+3)& (0+255),7,b
  1927   0011E2  EF03  F009         	goto	u4660
  1928   0011E6  51F1               	movf	(serialBegin@baudRate+3)& (0+255),w,b
  1929   0011E8  11F0               	iorwf	(serialBegin@baudRate+2)& (0+255),w,b
  1930   0011EA  E109               	bnz	u4661
  1931   0011EC  0E61               	movlw	97
  1932   0011EE  5DEE               	subwf	serialBegin@baudRate& (0+255),w,b
  1933   0011F0  0E09               	movlw	9
  1934   0011F2  59EF               	subwfb	(serialBegin@baudRate+1)& (0+255),w,b
  1935   0011F4  B0D8               	btfsc	status,0,c
  1936   0011F6  EFFF  F008         	goto	u4661
  1937   0011FA  EF03  F009         	goto	u4660
  1938   0011FE                     u4661:
  1939   0011FE  6BF3               	clrf	??_serialBegin& (0+255),b
  1940   001200  2BF3               	incf	??_serialBegin& (0+255),f,b
  1941   001202  EF05  F009         	goto	u4678
  1942   001206                     u4660:
  1943   001206  0100               	movlb	0	; () banked
  1944   001208  6BF3               	clrf	??_serialBegin& (0+255),b
  1945   00120A                     u4678:
  1946   00120A  47F3               	rlncf	??_serialBegin& (0+255),f,b
  1947   00120C  47F3               	rlncf	??_serialBegin& (0+255),f,b
  1948   00120E  50AC               	movf	172,w,c	;volatile
  1949   001210  19F3               	xorwf	??_serialBegin& (0+255),w,b
  1950   001212  0BFB               	andlw	-5
  1951   001214  19F3               	xorwf	??_serialBegin& (0+255),w,b
  1952   001216  6EAC               	movwf	172,c	;volatile
  1953   001218                     
  1954                           ; BSR set to: 0
  1955                           ;./lib.h: 1004:     if (!TXSTAbits.SYNC && !BAUDCONbits.BRG16 && !TXSTAbits.BRGH)
  1956   001218  B8AC               	btfsc	172,4,c	;volatile
  1957   00121A  EF11  F009         	goto	u4681
  1958   00121E  EF13  F009         	goto	u4680
  1959   001222                     u4681:
  1960   001222  EF3D  F009         	goto	l61
  1961   001226                     u4680:
  1962   001226                     
  1963                           ; BSR set to: 0
  1964   001226  B6B8               	btfsc	184,3,c	;volatile
  1965   001228  EF18  F009         	goto	u4691
  1966   00122C  EF1A  F009         	goto	u4690
  1967   001230                     u4691:
  1968   001230  EF3D  F009         	goto	l61
  1969   001234                     u4690:
  1970   001234                     
  1971                           ; BSR set to: 0
  1972   001234  B4AC               	btfsc	172,2,c	;volatile
  1973   001236  EF1F  F009         	goto	u4701
  1974   00123A  EF21  F009         	goto	u4700
  1975   00123E                     u4701:
  1976   00123E  EF3D  F009         	goto	l61
  1977   001242                     u4700:
  1978   001242                     
  1979                           ; BSR set to: 0
  1980                           ;./lib.h: 1005:         baudRateGenerator /= 64;
  1981   001242  C0F4  F0E0         	movff	serialBegin@baudRateGenerator,___aldiv@dividend
  1982   001246  C0F5  F0E1         	movff	serialBegin@baudRateGenerator+1,___aldiv@dividend+1
  1983   00124A  C0F6  F0E2         	movff	serialBegin@baudRateGenerator+2,___aldiv@dividend+2
  1984   00124E  C0F7  F0E3         	movff	serialBegin@baudRateGenerator+3,___aldiv@dividend+3
  1985   001252  0E40               	movlw	64
  1986   001254  6FE4               	movwf	___aldiv@divisor& (0+255),b
  1987   001256  0E00               	movlw	0
  1988   001258  6FE5               	movwf	(___aldiv@divisor+1)& (0+255),b
  1989   00125A  0E00               	movlw	0
  1990   00125C  6FE6               	movwf	(___aldiv@divisor+2)& (0+255),b
  1991   00125E  0E00               	movlw	0
  1992   001260  6FE7               	movwf	(___aldiv@divisor+3)& (0+255),b
  1993   001262  ECCF  F00F         	call	___aldiv	;wreg free
  1994   001266  C0E0  F0F4         	movff	?___aldiv,serialBegin@baudRateGenerator
  1995   00126A  C0E1  F0F5         	movff	?___aldiv+1,serialBegin@baudRateGenerator+1
  1996   00126E  C0E2  F0F6         	movff	?___aldiv+2,serialBegin@baudRateGenerator+2
  1997   001272  C0E3  F0F7         	movff	?___aldiv+3,serialBegin@baudRateGenerator+3
  1998   001276  EF95  F009         	goto	l4170
  1999   00127A                     l61:
  2000                           
  2001                           ; BSR set to: 0
  2002   00127A  B8AC               	btfsc	172,4,c	;volatile
  2003   00127C  EF42  F009         	goto	u4711
  2004   001280  EF44  F009         	goto	u4710
  2005   001284                     u4711:
  2006   001284  EF7B  F009         	goto	l4168
  2007   001288                     u4710:
  2008   001288                     
  2009                           ; BSR set to: 0
  2010   001288  B4AC               	btfsc	172,2,c	;volatile
  2011   00128A  EF49  F009         	goto	u4721
  2012   00128E  EF4C  F009         	goto	u4720
  2013   001292                     u4721:
  2014   001292  0E01               	movlw	1
  2015   001294  EF4D  F009         	goto	u4722
  2016   001298                     u4720:
  2017   001298  0E00               	movlw	0
  2018   00129A                     u4722:
  2019   00129A  6FF3               	movwf	??_serialBegin& (0+255),b
  2020   00129C  B6B8               	btfsc	184,3,c	;volatile
  2021   00129E  EF53  F009         	goto	u4731
  2022   0012A2  EF56  F009         	goto	u4730
  2023   0012A6                     u4731:
  2024   0012A6  0E01               	movlw	1
  2025   0012A8  EF57  F009         	goto	u4732
  2026   0012AC                     u4730:
  2027   0012AC  0E00               	movlw	0
  2028   0012AE                     u4732:
  2029   0012AE  1BF3               	xorwf	??_serialBegin& (0+255),f,b
  2030   0012B0  B4D8               	btfsc	status,2,c
  2031   0012B2  EF5D  F009         	goto	u4741
  2032   0012B6  EF5F  F009         	goto	u4740
  2033   0012BA                     u4741:
  2034   0012BA  EF7B  F009         	goto	l4168
  2035   0012BE                     u4740:
  2036   0012BE                     
  2037                           ; BSR set to: 0
  2038                           ;./lib.h: 1007:         baudRateGenerator /= 16;
  2039   0012BE  C0F4  F0E0         	movff	serialBegin@baudRateGenerator,___aldiv@dividend
  2040   0012C2  C0F5  F0E1         	movff	serialBegin@baudRateGenerator+1,___aldiv@dividend+1
  2041   0012C6  C0F6  F0E2         	movff	serialBegin@baudRateGenerator+2,___aldiv@dividend+2
  2042   0012CA  C0F7  F0E3         	movff	serialBegin@baudRateGenerator+3,___aldiv@dividend+3
  2043   0012CE  0E10               	movlw	16
  2044   0012D0  6FE4               	movwf	___aldiv@divisor& (0+255),b
  2045   0012D2  0E00               	movlw	0
  2046   0012D4  6FE5               	movwf	(___aldiv@divisor+1)& (0+255),b
  2047   0012D6  0E00               	movlw	0
  2048   0012D8  6FE6               	movwf	(___aldiv@divisor+2)& (0+255),b
  2049   0012DA  0E00               	movlw	0
  2050   0012DC  6FE7               	movwf	(___aldiv@divisor+3)& (0+255),b
  2051   0012DE  ECCF  F00F         	call	___aldiv	;wreg free
  2052   0012E2  C0E0  F0F4         	movff	?___aldiv,serialBegin@baudRateGenerator
  2053   0012E6  C0E1  F0F5         	movff	?___aldiv+1,serialBegin@baudRateGenerator+1
  2054   0012EA  C0E2  F0F6         	movff	?___aldiv+2,serialBegin@baudRateGenerator+2
  2055   0012EE  C0E3  F0F7         	movff	?___aldiv+3,serialBegin@baudRateGenerator+3
  2056   0012F2  EF95  F009         	goto	l4170
  2057   0012F6                     l4168:
  2058                           
  2059                           ; BSR set to: 0
  2060                           ;./lib.h: 1009:         baudRateGenerator /= 4;
  2061   0012F6  C0F4  F0E0         	movff	serialBegin@baudRateGenerator,___aldiv@dividend
  2062   0012FA  C0F5  F0E1         	movff	serialBegin@baudRateGenerator+1,___aldiv@dividend+1
  2063   0012FE  C0F6  F0E2         	movff	serialBegin@baudRateGenerator+2,___aldiv@dividend+2
  2064   001302  C0F7  F0E3         	movff	serialBegin@baudRateGenerator+3,___aldiv@dividend+3
  2065   001306  0E04               	movlw	4
  2066   001308  6FE4               	movwf	___aldiv@divisor& (0+255),b
  2067   00130A  0E00               	movlw	0
  2068   00130C  6FE5               	movwf	(___aldiv@divisor+1)& (0+255),b
  2069   00130E  0E00               	movlw	0
  2070   001310  6FE6               	movwf	(___aldiv@divisor+2)& (0+255),b
  2071   001312  0E00               	movlw	0
  2072   001314  6FE7               	movwf	(___aldiv@divisor+3)& (0+255),b
  2073   001316  ECCF  F00F         	call	___aldiv	;wreg free
  2074   00131A  C0E0  F0F4         	movff	?___aldiv,serialBegin@baudRateGenerator
  2075   00131E  C0E1  F0F5         	movff	?___aldiv+1,serialBegin@baudRateGenerator+1
  2076   001322  C0E2  F0F6         	movff	?___aldiv+2,serialBegin@baudRateGenerator+2
  2077   001326  C0E3  F0F7         	movff	?___aldiv+3,serialBegin@baudRateGenerator+3
  2078   00132A                     l4170:
  2079                           
  2080                           ;./lib.h: 1012:     SPBRGH = (unsigned char)(baudRateGenerator >> 8);
  2081   00132A  C0F5  FFB0         	movff	serialBegin@baudRateGenerator+1,4016	;volatile
  2082   00132E                     
  2083                           ;./lib.h: 1013:     SPBRG = (unsigned char)baudRateGenerator;
  2084   00132E  C0F4  FFAF         	movff	serialBegin@baudRateGenerator,4015	;volatile
  2085   001332                     
  2086                           ;./lib.h: 1016:     RCSTAbits.SPEN = 1;
  2087   001332  8EAB               	bsf	171,7,c	;volatile
  2088   001334                     
  2089                           ;./lib.h: 1017:     TXSTAbits.TXEN = 1;
  2090   001334  8AAC               	bsf	172,5,c	;volatile
  2091   001336                     
  2092                           ;./lib.h: 1018:     RCSTAbits.CREN = 1;
  2093   001336  88AB               	bsf	171,4,c	;volatile
  2094   001338                     
  2095                           ;./lib.h: 1019:     PIR1bits.RCIF = 0b0; PIE1bits.RCIE = 0b1; IPR1bits.RCIP = receiveInt
      +                          erruptPriority;
  2096   001338  9A9E               	bcf	158,5,c	;volatile
  2097   00133A  8A9D               	bsf	157,5,c	;volatile
  2098   00133C  0100               	movlb	0	; () banked
  2099   00133E  B1F2               	btfsc	serialBegin@receiveInterruptPriority& (0+255),0,b
  2100   001340  D002               	bra	u4755
  2101   001342  9A9F               	bcf	159,5,c	;volatile
  2102   001344  D001               	bra	u4756
  2103   001346                     u4755:
  2104   001346  8A9F               	bsf	159,5,c	;volatile
  2105   001348                     u4756:
  2106   001348  0012               	return		;funcret
  2107   00134A                     __end_of_serialBegin:
  2108                           	callstack 0
  2109                           
  2110 ;; *************** function ___aldiv *****************
  2111 ;; Defined at:
  2112 ;;		line 7 in file "C:\Program Files\Microchip\xc8\v3.00\pic\sources\c99\common\aldiv.c"
  2113 ;; Parameters:    Size  Location     Type
  2114 ;;  dividend        4    0[BANK0 ] long 
  2115 ;;  divisor         4    4[BANK0 ] long 
  2116 ;; Auto vars:     Size  Location     Type
  2117 ;;  quotient        4   10[BANK0 ] long 
  2118 ;;  sign            1    9[BANK0 ] unsigned char 
  2119 ;;  counter         1    8[BANK0 ] unsigned char 
  2120 ;; Return value:  Size  Location     Type
  2121 ;;                  4    0[BANK0 ] long 
  2122 ;; Registers used:
  2123 ;;		wreg, status,2, status,0
  2124 ;; Tracked objects:
  2125 ;;		On entry : 0/0
  2126 ;;		On exit  : 0/0
  2127 ;;		Unchanged: 0/0
  2128 ;; Data sizes:     COMRAM   BANK0   BANK1   BANK2   BANK3   BANK4   BANK5
  2129 ;;      Params:         0       8       0       0       0       0       0
  2130 ;;      Locals:         0       6       0       0       0       0       0
  2131 ;;      Temps:          0       0       0       0       0       0       0
  2132 ;;      Totals:         0      14       0       0       0       0       0
  2133 ;;Total ram usage:       14 bytes
  2134 ;; Hardware stack levels used: 1
  2135 ;; Hardware stack levels required when called: 7
  2136 ;; This function calls:
  2137 ;;		Nothing
  2138 ;; This function is called by:
  2139 ;;		_serialBegin
  2140 ;; This function uses a non-reentrant model
  2141 ;;
  2142                           
  2143                           	psect	text5
  2144   001F9E                     __ptext5:
  2145                           	callstack 0
  2146   001F9E                     ___aldiv:
  2147                           	callstack 22
  2148   001F9E  0100               	movlb	0	; () banked
  2149   001FA0  6BE9               	clrf	___aldiv@sign& (0+255),b
  2150   001FA2                     
  2151                           ; BSR set to: 0
  2152   001FA2  BFE7               	btfsc	(___aldiv@divisor+3)& (0+255),7,b
  2153   001FA4  EFD8  F00F         	goto	u4600
  2154   001FA8  EFD6  F00F         	goto	u4601
  2155   001FAC                     u4601:
  2156   001FAC  EFE2  F00F         	goto	l4114
  2157   001FB0                     u4600:
  2158   001FB0                     
  2159                           ; BSR set to: 0
  2160   001FB0  1FE7               	comf	(___aldiv@divisor+3)& (0+255),f,b
  2161   001FB2  1FE6               	comf	(___aldiv@divisor+2)& (0+255),f,b
  2162   001FB4  1FE5               	comf	(___aldiv@divisor+1)& (0+255),f,b
  2163   001FB6  6DE4               	negf	___aldiv@divisor& (0+255),b
  2164   001FB8  0E00               	movlw	0
  2165   001FBA  23E5               	addwfc	(___aldiv@divisor+1)& (0+255),f,b
  2166   001FBC  23E6               	addwfc	(___aldiv@divisor+2)& (0+255),f,b
  2167   001FBE  23E7               	addwfc	(___aldiv@divisor+3)& (0+255),f,b
  2168   001FC0                     
  2169                           ; BSR set to: 0
  2170   001FC0  0E01               	movlw	1
  2171   001FC2  6FE9               	movwf	___aldiv@sign& (0+255),b
  2172   001FC4                     l4114:
  2173                           
  2174                           ; BSR set to: 0
  2175   001FC4  BFE3               	btfsc	(___aldiv@dividend+3)& (0+255),7,b
  2176   001FC6  EFE9  F00F         	goto	u4610
  2177   001FCA  EFE7  F00F         	goto	u4611
  2178   001FCE                     u4611:
  2179   001FCE  EFF3  F00F         	goto	l4120
  2180   001FD2                     u4610:
  2181   001FD2                     
  2182                           ; BSR set to: 0
  2183   001FD2  1FE3               	comf	(___aldiv@dividend+3)& (0+255),f,b
  2184   001FD4  1FE2               	comf	(___aldiv@dividend+2)& (0+255),f,b
  2185   001FD6  1FE1               	comf	(___aldiv@dividend+1)& (0+255),f,b
  2186   001FD8  6DE0               	negf	___aldiv@dividend& (0+255),b
  2187   001FDA  0E00               	movlw	0
  2188   001FDC  23E1               	addwfc	(___aldiv@dividend+1)& (0+255),f,b
  2189   001FDE  23E2               	addwfc	(___aldiv@dividend+2)& (0+255),f,b
  2190   001FE0  23E3               	addwfc	(___aldiv@dividend+3)& (0+255),f,b
  2191   001FE2                     
  2192                           ; BSR set to: 0
  2193   001FE2  0E01               	movlw	1
  2194   001FE4  1BE9               	xorwf	___aldiv@sign& (0+255),f,b
  2195   001FE6                     l4120:
  2196                           
  2197                           ; BSR set to: 0
  2198   001FE6  0E00               	movlw	0
  2199   001FE8  6FEA               	movwf	___aldiv@quotient& (0+255),b
  2200   001FEA  0E00               	movlw	0
  2201   001FEC  6FEB               	movwf	(___aldiv@quotient+1)& (0+255),b
  2202   001FEE  0E00               	movlw	0
  2203   001FF0  6FEC               	movwf	(___aldiv@quotient+2)& (0+255),b
  2204   001FF2  0E00               	movlw	0
  2205   001FF4  6FED               	movwf	(___aldiv@quotient+3)& (0+255),b
  2206   001FF6                     
  2207                           ; BSR set to: 0
  2208   001FF6  51E4               	movf	___aldiv@divisor& (0+255),w,b
  2209   001FF8  11E5               	iorwf	(___aldiv@divisor+1)& (0+255),w,b
  2210   001FFA  11E6               	iorwf	(___aldiv@divisor+2)& (0+255),w,b
  2211   001FFC  11E7               	iorwf	(___aldiv@divisor+3)& (0+255),w,b
  2212   001FFE  B4D8               	btfsc	status,2,c
  2213   002000  EF04  F010         	goto	u4621
  2214   002004  EF06  F010         	goto	u4620
  2215   002008                     u4621:
  2216   002008  EF3C  F010         	goto	l4142
  2217   00200C                     u4620:
  2218   00200C                     
  2219                           ; BSR set to: 0
  2220   00200C  0E01               	movlw	1
  2221   00200E  6FE8               	movwf	___aldiv@counter& (0+255),b
  2222   002010  EF10  F010         	goto	l4128
  2223   002014                     l4126:
  2224                           
  2225                           ; BSR set to: 0
  2226   002014  90D8               	bcf	status,0,c
  2227   002016  37E4               	rlcf	___aldiv@divisor& (0+255),f,b
  2228   002018  37E5               	rlcf	(___aldiv@divisor+1)& (0+255),f,b
  2229   00201A  37E6               	rlcf	(___aldiv@divisor+2)& (0+255),f,b
  2230   00201C  37E7               	rlcf	(___aldiv@divisor+3)& (0+255),f,b
  2231   00201E  2BE8               	incf	___aldiv@counter& (0+255),f,b
  2232   002020                     l4128:
  2233                           
  2234                           ; BSR set to: 0
  2235   002020  AFE7               	btfss	(___aldiv@divisor+3)& (0+255),7,b
  2236   002022  EF15  F010         	goto	u4631
  2237   002026  EF17  F010         	goto	u4630
  2238   00202A                     u4631:
  2239   00202A  EF0A  F010         	goto	l4126
  2240   00202E                     u4630:
  2241   00202E                     l4130:
  2242                           
  2243                           ; BSR set to: 0
  2244   00202E  90D8               	bcf	status,0,c
  2245   002030  37EA               	rlcf	___aldiv@quotient& (0+255),f,b
  2246   002032  37EB               	rlcf	(___aldiv@quotient+1)& (0+255),f,b
  2247   002034  37EC               	rlcf	(___aldiv@quotient+2)& (0+255),f,b
  2248   002036  37ED               	rlcf	(___aldiv@quotient+3)& (0+255),f,b
  2249   002038                     
  2250                           ; BSR set to: 0
  2251   002038  51E4               	movf	___aldiv@divisor& (0+255),w,b
  2252   00203A  5DE0               	subwf	___aldiv@dividend& (0+255),w,b
  2253   00203C  51E5               	movf	(___aldiv@divisor+1)& (0+255),w,b
  2254   00203E  59E1               	subwfb	(___aldiv@dividend+1)& (0+255),w,b
  2255   002040  51E6               	movf	(___aldiv@divisor+2)& (0+255),w,b
  2256   002042  59E2               	subwfb	(___aldiv@dividend+2)& (0+255),w,b
  2257   002044  51E7               	movf	(___aldiv@divisor+3)& (0+255),w,b
  2258   002046  59E3               	subwfb	(___aldiv@dividend+3)& (0+255),w,b
  2259   002048  A0D8               	btfss	status,0,c
  2260   00204A  EF29  F010         	goto	u4641
  2261   00204E  EF2B  F010         	goto	u4640
  2262   002052                     u4641:
  2263   002052  EF34  F010         	goto	l4138
  2264   002056                     u4640:
  2265   002056                     
  2266                           ; BSR set to: 0
  2267   002056  51E4               	movf	___aldiv@divisor& (0+255),w,b
  2268   002058  5FE0               	subwf	___aldiv@dividend& (0+255),f,b
  2269   00205A  51E5               	movf	(___aldiv@divisor+1)& (0+255),w,b
  2270   00205C  5BE1               	subwfb	(___aldiv@dividend+1)& (0+255),f,b
  2271   00205E  51E6               	movf	(___aldiv@divisor+2)& (0+255),w,b
  2272   002060  5BE2               	subwfb	(___aldiv@dividend+2)& (0+255),f,b
  2273   002062  51E7               	movf	(___aldiv@divisor+3)& (0+255),w,b
  2274   002064  5BE3               	subwfb	(___aldiv@dividend+3)& (0+255),f,b
  2275   002066                     
  2276                           ; BSR set to: 0
  2277   002066  81EA               	bsf	___aldiv@quotient& (0+255),0,b
  2278   002068                     l4138:
  2279                           
  2280                           ; BSR set to: 0
  2281   002068  90D8               	bcf	status,0,c
  2282   00206A  33E7               	rrcf	(___aldiv@divisor+3)& (0+255),f,b
  2283   00206C  33E6               	rrcf	(___aldiv@divisor+2)& (0+255),f,b
  2284   00206E  33E5               	rrcf	(___aldiv@divisor+1)& (0+255),f,b
  2285   002070  33E4               	rrcf	___aldiv@divisor& (0+255),f,b
  2286   002072                     
  2287                           ; BSR set to: 0
  2288   002072  2FE8               	decfsz	___aldiv@counter& (0+255),f,b
  2289   002074  EF17  F010         	goto	l4130
  2290   002078                     l4142:
  2291                           
  2292                           ; BSR set to: 0
  2293   002078  51E9               	movf	___aldiv@sign& (0+255),w,b
  2294   00207A  B4D8               	btfsc	status,2,c
  2295   00207C  EF42  F010         	goto	u4651
  2296   002080  EF44  F010         	goto	u4650
  2297   002084                     u4651:
  2298   002084  EF4C  F010         	goto	l4146
  2299   002088                     u4650:
  2300   002088                     
  2301                           ; BSR set to: 0
  2302   002088  1FED               	comf	(___aldiv@quotient+3)& (0+255),f,b
  2303   00208A  1FEC               	comf	(___aldiv@quotient+2)& (0+255),f,b
  2304   00208C  1FEB               	comf	(___aldiv@quotient+1)& (0+255),f,b
  2305   00208E  6DEA               	negf	___aldiv@quotient& (0+255),b
  2306   002090  0E00               	movlw	0
  2307   002092  23EB               	addwfc	(___aldiv@quotient+1)& (0+255),f,b
  2308   002094  23EC               	addwfc	(___aldiv@quotient+2)& (0+255),f,b
  2309   002096  23ED               	addwfc	(___aldiv@quotient+3)& (0+255),f,b
  2310   002098                     l4146:
  2311                           
  2312                           ; BSR set to: 0
  2313   002098  C0EA  F0E0         	movff	___aldiv@quotient,?___aldiv
  2314   00209C  C0EB  F0E1         	movff	___aldiv@quotient+1,?___aldiv+1
  2315   0020A0  C0EC  F0E2         	movff	___aldiv@quotient+2,?___aldiv+2
  2316   0020A4  C0ED  F0E3         	movff	___aldiv@quotient+3,?___aldiv+3
  2317   0020A8                     
  2318                           ; BSR set to: 0
  2319   0020A8  0012               	return		;funcret
  2320   0020AA                     __end_of___aldiv:
  2321                           	callstack 0
  2322                           
  2323 ;; *************** function _game_step *****************
  2324 ;; Defined at:
  2325 ;;		line 181 in file "./helpers.h"
  2326 ;; Parameters:    Size  Location     Type
  2327 ;;		None
  2328 ;; Auto vars:     Size  Location     Type
  2329 ;;		None
  2330 ;; Return value:  Size  Location     Type
  2331 ;;                  1    wreg      void 
  2332 ;; Registers used:
  2333 ;;		wreg, fsr1l, fsr1h, fsr2l, fsr2h, status,2, status,0, prodl, prodh, cstack
  2334 ;; Tracked objects:
  2335 ;;		On entry : 0/0
  2336 ;;		On exit  : 0/0
  2337 ;;		Unchanged: 0/0
  2338 ;; Data sizes:     COMRAM   BANK0   BANK1   BANK2   BANK3   BANK4   BANK5
  2339 ;;      Params:         0       0       0       0       0       0       0
  2340 ;;      Locals:         0       0       0       0       0       0       0
  2341 ;;      Temps:          0       0       0       0       0       0       0
  2342 ;;      Totals:         0       0       0       0       0       0       0
  2343 ;;Total ram usage:        0 bytes
  2344 ;; Hardware stack levels used: 1
  2345 ;; Hardware stack levels required when called: 10
  2346 ;; This function calls:
  2347 ;;		_check_for_full_rows
  2348 ;;		_current_block_is_in_illegal_position
  2349 ;;		_drop_block_from_sky
  2350 ;;		_reset_game
  2351 ;;		_solidify_current_block
  2352 ;; This function is called by:
  2353 ;;		_main
  2354 ;; This function uses a non-reentrant model
  2355 ;;
  2356                           
  2357                           	psect	text6
  2358   002A4A                     __ptext6:
  2359                           	callstack 0
  2360   002A4A                     _game_step:
  2361                           	callstack 20
  2362   002A4A                     
  2363                           ;./helpers.h: 182:     block_location_y++;
  2364   002A4A  4A50               	infsnz	_block_location_y^0,f,c
  2365   002A4C  2A51               	incf	(_block_location_y+1)^0,f,c
  2366   002A4E                     
  2367                           ;./helpers.h: 183:     if (current_block_is_in_illegal_position()) {
  2368   002A4E  ECE3  F00B         	call	_current_block_is_in_illegal_position	;wreg free
  2369   002A52  0900               	iorlw	0
  2370   002A54  B4D8               	btfsc	status,2,c
  2371   002A56  EF2F  F015         	goto	u5091
  2372   002A5A  EF31  F015         	goto	u5090
  2373   002A5E                     u5091:
  2374   002A5E  EF48  F015         	goto	l286
  2375   002A62                     u5090:
  2376   002A62                     
  2377                           ;./helpers.h: 184:         block_location_y--;
  2378   002A62  0650               	decf	_block_location_y^0,f,c
  2379   002A64  A0D8               	btfss	status,0,c
  2380   002A66  0651               	decf	(_block_location_y+1)^0,f,c
  2381   002A68                     
  2382                           ;./helpers.h: 185:         solidify_current_block();
  2383   002A68  ECAA  F00D         	call	_solidify_current_block	;wreg free
  2384   002A6C                     
  2385                           ;./helpers.h: 186:         check_for_full_rows();
  2386   002A6C  EC18  F004         	call	_check_for_full_rows	;wreg free
  2387   002A70                     
  2388                           ;./helpers.h: 187:         drop_block_from_sky();
  2389   002A70  EC34  F00E         	call	_drop_block_from_sky	;wreg free
  2390   002A74                     
  2391                           ;./helpers.h: 188:         if (current_block_is_in_illegal_position()) {
  2392   002A74  ECE3  F00B         	call	_current_block_is_in_illegal_position	;wreg free
  2393   002A78  0900               	iorlw	0
  2394   002A7A  B4D8               	btfsc	status,2,c
  2395   002A7C  EF42  F015         	goto	u5101
  2396   002A80  EF44  F015         	goto	u5100
  2397   002A84                     u5101:
  2398   002A84  EF48  F015         	goto	l286
  2399   002A88                     u5100:
  2400   002A88                     
  2401                           ;./helpers.h: 189:             reset_game();
  2402   002A88  EC55  F010         	call	_reset_game	;wreg free
  2403   002A8C                     
  2404                           ;./helpers.h: 190:             drop_block_from_sky();
  2405   002A8C  EC34  F00E         	call	_drop_block_from_sky	;wreg free
  2406   002A90                     l286:
  2407   002A90  0012               	return		;funcret
  2408   002A92                     __end_of_game_step:
  2409                           	callstack 0
  2410                           
  2411 ;; *************** function _compose_board *****************
  2412 ;; Defined at:
  2413 ;;		line 166 in file "./helpers.h"
  2414 ;; Parameters:    Size  Location     Type
  2415 ;;		None
  2416 ;; Auto vars:     Size  Location     Type
  2417 ;;  y               2   10[BANK0 ] int 
  2418 ;;  x               2    8[BANK0 ] int 
  2419 ;;  j               2   18[BANK0 ] int 
  2420 ;;  j               2   14[BANK0 ] int 
  2421 ;;  i               2   16[BANK0 ] int 
  2422 ;;  i               2   12[BANK0 ] int 
  2423 ;; Return value:  Size  Location     Type
  2424 ;;                  1    wreg      void 
  2425 ;; Registers used:
  2426 ;;		wreg, fsr1l, fsr1h, fsr2l, fsr2h, status,2, status,0, prodl, prodh
  2427 ;; Tracked objects:
  2428 ;;		On entry : 0/0
  2429 ;;		On exit  : 0/0
  2430 ;;		Unchanged: 0/0
  2431 ;; Data sizes:     COMRAM   BANK0   BANK1   BANK2   BANK3   BANK4   BANK5
  2432 ;;      Params:         0       0       0       0       0       0       0
  2433 ;;      Locals:         0      12       0       0       0       0       0
  2434 ;;      Temps:          0       8       0       0       0       0       0
  2435 ;;      Totals:         0      20       0       0       0       0       0
  2436 ;;Total ram usage:       20 bytes
  2437 ;; Hardware stack levels used: 1
  2438 ;; Hardware stack levels required when called: 7
  2439 ;; This function calls:
  2440 ;;		Nothing
  2441 ;; This function is called by:
  2442 ;;		_main
  2443 ;; This function uses a non-reentrant model
  2444 ;;
  2445                           
  2446                           	psect	text7
  2447   000E04                     __ptext7:
  2448                           	callstack 0
  2449   000E04                     _compose_board:
  2450                           	callstack 23
  2451   000E04                     
  2452                           ;./helpers.h: 167:     for (int i = 0; i < 16; i++) {
  2453   000E04  0E00               	movlw	0
  2454   000E06  0100               	movlb	0	; () banked
  2455   000E08  6FED               	movwf	(compose_board@i+1)& (0+255),b
  2456   000E0A  0E00               	movlw	0
  2457   000E0C  6FEC               	movwf	compose_board@i& (0+255),b
  2458   000E0E                     l4330:
  2459                           
  2460                           ; BSR set to: 0
  2461                           ;./helpers.h: 168:         for (int j = 0; j < 8; j++) board[i][j] = display_matrix[i][j
      +                          ] ? 1 : 0;
  2462   000E0E  0E00               	movlw	0
  2463   000E10  6FEF               	movwf	(compose_board@j+1)& (0+255),b
  2464   000E12  0E00               	movlw	0
  2465   000E14  6FEE               	movwf	compose_board@j& (0+255),b
  2466   000E16                     l4336:
  2467                           
  2468                           ; BSR set to: 0
  2469   000E16  C0EC  F0E0         	movff	compose_board@i,??_compose_board
  2470   000E1A  C0ED  F0E1         	movff	compose_board@i+1,??_compose_board+1
  2471   000E1E  90D8               	bcf	status,0,c
  2472   000E20  37E0               	rlcf	??_compose_board& (0+255),f,b
  2473   000E22  37E1               	rlcf	(??_compose_board+1)& (0+255),f,b
  2474   000E24  90D8               	bcf	status,0,c
  2475   000E26  37E0               	rlcf	??_compose_board& (0+255),f,b
  2476   000E28  37E1               	rlcf	(??_compose_board+1)& (0+255),f,b
  2477   000E2A  90D8               	bcf	status,0,c
  2478   000E2C  37E0               	rlcf	??_compose_board& (0+255),f,b
  2479   000E2E  37E1               	rlcf	(??_compose_board+1)& (0+255),f,b
  2480   000E30  0E00               	movlw	low _board
  2481   000E32  25E0               	addwf	??_compose_board& (0+255),w,b
  2482   000E34  6FE2               	movwf	(??_compose_board+2)& (0+255),b
  2483   000E36  0E02               	movlw	high _board
  2484   000E38  21E1               	addwfc	(??_compose_board+1)& (0+255),w,b
  2485   000E3A  6FE3               	movwf	(??_compose_board+3)& (0+255),b
  2486   000E3C  51EE               	movf	compose_board@j& (0+255),w,b
  2487   000E3E  25E2               	addwf	(??_compose_board+2)& (0+255),w,b
  2488   000E40  6ED9               	movwf	fsr2l,c
  2489   000E42  51EF               	movf	(compose_board@j+1)& (0+255),w,b
  2490   000E44  21E3               	addwfc	(??_compose_board+3)& (0+255),w,b
  2491   000E46  6EDA               	movwf	fsr2h,c
  2492   000E48  C0EC  F0E4         	movff	compose_board@i,??_compose_board+4
  2493   000E4C  C0ED  F0E5         	movff	compose_board@i+1,??_compose_board+5
  2494   000E50  90D8               	bcf	status,0,c
  2495   000E52  37E4               	rlcf	(??_compose_board+4)& (0+255),f,b
  2496   000E54  37E5               	rlcf	(??_compose_board+5)& (0+255),f,b
  2497   000E56  90D8               	bcf	status,0,c
  2498   000E58  37E4               	rlcf	(??_compose_board+4)& (0+255),f,b
  2499   000E5A  37E5               	rlcf	(??_compose_board+5)& (0+255),f,b
  2500   000E5C  90D8               	bcf	status,0,c
  2501   000E5E  37E4               	rlcf	(??_compose_board+4)& (0+255),f,b
  2502   000E60  37E5               	rlcf	(??_compose_board+5)& (0+255),f,b
  2503   000E62  0E10               	movlw	low _display_matrix
  2504   000E64  25E4               	addwf	(??_compose_board+4)& (0+255),w,b
  2505   000E66  6FE6               	movwf	(??_compose_board+6)& (0+255),b
  2506   000E68  0E01               	movlw	high _display_matrix
  2507   000E6A  21E5               	addwfc	(??_compose_board+5)& (0+255),w,b
  2508   000E6C  6FE7               	movwf	(??_compose_board+7)& (0+255),b
  2509   000E6E  51EE               	movf	compose_board@j& (0+255),w,b
  2510   000E70  25E6               	addwf	(??_compose_board+6)& (0+255),w,b
  2511   000E72  6EE1               	movwf	fsr1l,c
  2512   000E74  51EF               	movf	(compose_board@j+1)& (0+255),w,b
  2513   000E76  21E7               	addwfc	(??_compose_board+7)& (0+255),w,b
  2514   000E78  6EE2               	movwf	fsr1h,c
  2515   000E7A  50E7               	movf	indf1,w,c
  2516   000E7C  A4D8               	btfss	status,2,c
  2517   000E7E  EF43  F007         	goto	u4981
  2518   000E82  EF46  F007         	goto	u4980
  2519   000E86                     u4981:
  2520   000E86  0E01               	movlw	1
  2521   000E88  EF47  F007         	goto	u4990
  2522   000E8C                     u4980:
  2523   000E8C  0E00               	movlw	0
  2524   000E8E                     u4990:
  2525   000E8E  6EDF               	movwf	indf2,c
  2526   000E90                     
  2527                           ; BSR set to: 0
  2528   000E90  4BEE               	infsnz	compose_board@j& (0+255),f,b
  2529   000E92  2BEF               	incf	(compose_board@j+1)& (0+255),f,b
  2530   000E94                     
  2531                           ; BSR set to: 0
  2532   000E94  BFEF               	btfsc	(compose_board@j+1)& (0+255),7,b
  2533   000E96  EF56  F007         	goto	u5001
  2534   000E9A  51EF               	movf	(compose_board@j+1)& (0+255),w,b
  2535   000E9C  E109               	bnz	u5000
  2536   000E9E  0E08               	movlw	8
  2537   000EA0  5DEE               	subwf	compose_board@j& (0+255),w,b
  2538   000EA2  A0D8               	btfss	status,0,c
  2539   000EA4  EF56  F007         	goto	u5001
  2540   000EA8  EF58  F007         	goto	u5000
  2541   000EAC                     u5001:
  2542   000EAC  EF0B  F007         	goto	l4336
  2543   000EB0                     u5000:
  2544   000EB0                     
  2545                           ; BSR set to: 0
  2546                           ;./helpers.h: 169:     }
  2547   000EB0  4BEC               	infsnz	compose_board@i& (0+255),f,b
  2548   000EB2  2BED               	incf	(compose_board@i+1)& (0+255),f,b
  2549   000EB4                     
  2550                           ; BSR set to: 0
  2551   000EB4  BFED               	btfsc	(compose_board@i+1)& (0+255),7,b
  2552   000EB6  EF66  F007         	goto	u5011
  2553   000EBA  51ED               	movf	(compose_board@i+1)& (0+255),w,b
  2554   000EBC  E109               	bnz	u5010
  2555   000EBE  0E10               	movlw	16
  2556   000EC0  5DEC               	subwf	compose_board@i& (0+255),w,b
  2557   000EC2  A0D8               	btfss	status,0,c
  2558   000EC4  EF66  F007         	goto	u5011
  2559   000EC8  EF68  F007         	goto	u5010
  2560   000ECC                     u5011:
  2561   000ECC  EF07  F007         	goto	l4330
  2562   000ED0                     u5010:
  2563   000ED0                     
  2564                           ; BSR set to: 0
  2565                           ;./helpers.h: 170:     for (int i = 0; i < 4; i++) {
  2566   000ED0  0E00               	movlw	0
  2567   000ED2  6FF1               	movwf	(compose_board@i_955+1)& (0+255),b
  2568   000ED4  0E00               	movlw	0
  2569   000ED6  6FF0               	movwf	compose_board@i_955& (0+255),b
  2570   000ED8                     l4352:
  2571                           
  2572                           ; BSR set to: 0
  2573                           ;./helpers.h: 171:         for (int j = 0; j < 4; j++) {
  2574   000ED8  0E00               	movlw	0
  2575   000EDA  6FF3               	movwf	(compose_board@j_956+1)& (0+255),b
  2576   000EDC  0E00               	movlw	0
  2577   000EDE  6FF2               	movwf	compose_board@j_956& (0+255),b
  2578   000EE0                     l4358:
  2579                           
  2580                           ; BSR set to: 0
  2581                           ;./helpers.h: 172:             if (current_block[i][j]) {
  2582   000EE0  51F0               	movf	compose_board@i_955& (0+255),w,b
  2583   000EE2  0D04               	mullw	4
  2584   000EE4  50F3               	movf	243,w,c
  2585   000EE6  0F3E               	addlw	low _current_block
  2586   000EE8  25F2               	addwf	compose_board@j_956& (0+255),w,b
  2587   000EEA  6ED9               	movwf	fsr2l,c
  2588   000EEC  6ADA               	clrf	fsr2h,c
  2589   000EEE  50DF               	movf	indf2,w,c
  2590   000EF0  B4D8               	btfsc	status,2,c
  2591   000EF2  EF7D  F007         	goto	u5021
  2592   000EF6  EF7F  F007         	goto	u5020
  2593   000EFA                     u5021:
  2594   000EFA  EFD0  F007         	goto	l4370
  2595   000EFE                     u5020:
  2596   000EFE                     
  2597                           ; BSR set to: 0
  2598                           ;./helpers.h: 173:                 int x = block_location_x + j;
  2599   000EFE  51F2               	movf	compose_board@j_956& (0+255),w,b
  2600   000F00  2452               	addwf	_block_location_x^0,w,c
  2601   000F02  6FE8               	movwf	compose_board@x& (0+255),b
  2602   000F04  51F3               	movf	(compose_board@j_956+1)& (0+255),w,b
  2603   000F06  2053               	addwfc	(_block_location_x+1)^0,w,c
  2604   000F08  6FE9               	movwf	(compose_board@x+1)& (0+255),b
  2605                           
  2606                           ;./helpers.h: 174:                 int y = block_location_y + i;
  2607   000F0A  51F0               	movf	compose_board@i_955& (0+255),w,b
  2608   000F0C  2450               	addwf	_block_location_y^0,w,c
  2609   000F0E  6FEA               	movwf	compose_board@y& (0+255),b
  2610   000F10  51F1               	movf	(compose_board@i_955+1)& (0+255),w,b
  2611   000F12  2051               	addwfc	(_block_location_y+1)^0,w,c
  2612   000F14  6FEB               	movwf	(compose_board@y+1)& (0+255),b
  2613                           
  2614                           ;./helpers.h: 175:                 if (x >= 0 && x < 8 && y >= 0 && y < 16) board[y][x] 
      +                          = 1;
  2615   000F16  BFE9               	btfsc	(compose_board@x+1)& (0+255),7,b
  2616   000F18  EF90  F007         	goto	u5031
  2617   000F1C  EF92  F007         	goto	u5030
  2618   000F20                     u5031:
  2619   000F20  EFD0  F007         	goto	l4370
  2620   000F24                     u5030:
  2621   000F24                     
  2622                           ; BSR set to: 0
  2623   000F24  BFE9               	btfsc	(compose_board@x+1)& (0+255),7,b
  2624   000F26  EFA0  F007         	goto	u5040
  2625   000F2A  51E9               	movf	(compose_board@x+1)& (0+255),w,b
  2626   000F2C  E107               	bnz	u5041
  2627   000F2E  0E08               	movlw	8
  2628   000F30  5DE8               	subwf	compose_board@x& (0+255),w,b
  2629   000F32  B0D8               	btfsc	status,0,c
  2630   000F34  EF9E  F007         	goto	u5041
  2631   000F38  EFA0  F007         	goto	u5040
  2632   000F3C                     u5041:
  2633   000F3C  EFD0  F007         	goto	l4370
  2634   000F40                     u5040:
  2635   000F40                     
  2636                           ; BSR set to: 0
  2637   000F40  BFEB               	btfsc	(compose_board@y+1)& (0+255),7,b
  2638   000F42  EFA5  F007         	goto	u5051
  2639   000F46  EFA7  F007         	goto	u5050
  2640   000F4A                     u5051:
  2641   000F4A  EFD0  F007         	goto	l4370
  2642   000F4E                     u5050:
  2643   000F4E                     
  2644                           ; BSR set to: 0
  2645   000F4E  BFEB               	btfsc	(compose_board@y+1)& (0+255),7,b
  2646   000F50  EFB5  F007         	goto	u5060
  2647   000F54  51EB               	movf	(compose_board@y+1)& (0+255),w,b
  2648   000F56  E107               	bnz	u5061
  2649   000F58  0E10               	movlw	16
  2650   000F5A  5DEA               	subwf	compose_board@y& (0+255),w,b
  2651   000F5C  B0D8               	btfsc	status,0,c
  2652   000F5E  EFB3  F007         	goto	u5061
  2653   000F62  EFB5  F007         	goto	u5060
  2654   000F66                     u5061:
  2655   000F66  EFD0  F007         	goto	l4370
  2656   000F6A                     u5060:
  2657   000F6A                     
  2658                           ; BSR set to: 0
  2659   000F6A  C0EA  F0E0         	movff	compose_board@y,??_compose_board
  2660   000F6E  C0EB  F0E1         	movff	compose_board@y+1,??_compose_board+1
  2661   000F72  90D8               	bcf	status,0,c
  2662   000F74  37E0               	rlcf	??_compose_board& (0+255),f,b
  2663   000F76  37E1               	rlcf	(??_compose_board+1)& (0+255),f,b
  2664   000F78  90D8               	bcf	status,0,c
  2665   000F7A  37E0               	rlcf	??_compose_board& (0+255),f,b
  2666   000F7C  37E1               	rlcf	(??_compose_board+1)& (0+255),f,b
  2667   000F7E  90D8               	bcf	status,0,c
  2668   000F80  37E0               	rlcf	??_compose_board& (0+255),f,b
  2669   000F82  37E1               	rlcf	(??_compose_board+1)& (0+255),f,b
  2670   000F84  0E00               	movlw	low _board
  2671   000F86  25E0               	addwf	??_compose_board& (0+255),w,b
  2672   000F88  6FE2               	movwf	(??_compose_board+2)& (0+255),b
  2673   000F8A  0E02               	movlw	high _board
  2674   000F8C  21E1               	addwfc	(??_compose_board+1)& (0+255),w,b
  2675   000F8E  6FE3               	movwf	(??_compose_board+3)& (0+255),b
  2676   000F90  51E8               	movf	compose_board@x& (0+255),w,b
  2677   000F92  25E2               	addwf	(??_compose_board+2)& (0+255),w,b
  2678   000F94  6ED9               	movwf	fsr2l,c
  2679   000F96  51E9               	movf	(compose_board@x+1)& (0+255),w,b
  2680   000F98  21E3               	addwfc	(??_compose_board+3)& (0+255),w,b
  2681   000F9A  6EDA               	movwf	fsr2h,c
  2682   000F9C  0E01               	movlw	1
  2683   000F9E  6EDF               	movwf	indf2,c
  2684   000FA0                     l4370:
  2685                           
  2686                           ; BSR set to: 0
  2687                           ;./helpers.h: 177:         }
  2688   000FA0  4BF2               	infsnz	compose_board@j_956& (0+255),f,b
  2689   000FA2  2BF3               	incf	(compose_board@j_956+1)& (0+255),f,b
  2690   000FA4                     
  2691                           ; BSR set to: 0
  2692   000FA4  BFF3               	btfsc	(compose_board@j_956+1)& (0+255),7,b
  2693   000FA6  EFDE  F007         	goto	u5071
  2694   000FAA  51F3               	movf	(compose_board@j_956+1)& (0+255),w,b
  2695   000FAC  E109               	bnz	u5070
  2696   000FAE  0E04               	movlw	4
  2697   000FB0  5DF2               	subwf	compose_board@j_956& (0+255),w,b
  2698   000FB2  A0D8               	btfss	status,0,c
  2699   000FB4  EFDE  F007         	goto	u5071
  2700   000FB8  EFE0  F007         	goto	u5070
  2701   000FBC                     u5071:
  2702   000FBC  EF70  F007         	goto	l4358
  2703   000FC0                     u5070:
  2704   000FC0                     
  2705                           ; BSR set to: 0
  2706                           ;./helpers.h: 178:     }
  2707   000FC0  4BF0               	infsnz	compose_board@i_955& (0+255),f,b
  2708   000FC2  2BF1               	incf	(compose_board@i_955+1)& (0+255),f,b
  2709   000FC4                     
  2710                           ; BSR set to: 0
  2711   000FC4  BFF1               	btfsc	(compose_board@i_955+1)& (0+255),7,b
  2712   000FC6  EFEE  F007         	goto	u5081
  2713   000FCA  51F1               	movf	(compose_board@i_955+1)& (0+255),w,b
  2714   000FCC  E109               	bnz	u5080
  2715   000FCE  0E04               	movlw	4
  2716   000FD0  5DF0               	subwf	compose_board@i_955& (0+255),w,b
  2717   000FD2  A0D8               	btfss	status,0,c
  2718   000FD4  EFEE  F007         	goto	u5081
  2719   000FD8  EFF0  F007         	goto	u5080
  2720   000FDC                     u5081:
  2721   000FDC  EF6C  F007         	goto	l4352
  2722   000FE0                     u5080:
  2723   000FE0                     
  2724                           ; BSR set to: 0
  2725   000FE0  0012               	return		;funcret
  2726   000FE2                     __end_of_compose_board:
  2727                           	callstack 0
  2728                           
  2729 ;; *************** function _check_inputs *****************
  2730 ;; Defined at:
  2731 ;;		line 29 in file "tetris.c"
  2732 ;; Parameters:    Size  Location     Type
  2733 ;;		None
  2734 ;; Auto vars:     Size  Location     Type
  2735 ;;		None
  2736 ;; Return value:  Size  Location     Type
  2737 ;;                  1    wreg      void 
  2738 ;; Registers used:
  2739 ;;		wreg, fsr1l, fsr1h, fsr2l, fsr2h, status,2, status,0, prodl, prodh, cstack
  2740 ;; Tracked objects:
  2741 ;;		On entry : 0/0
  2742 ;;		On exit  : 0/0
  2743 ;;		Unchanged: 0/0
  2744 ;; Data sizes:     COMRAM   BANK0   BANK1   BANK2   BANK3   BANK4   BANK5
  2745 ;;      Params:         0       0       0       0       0       0       0
  2746 ;;      Locals:         0       0       0       0       0       0       0
  2747 ;;      Temps:          0       0       1       0       0       0       0
  2748 ;;      Totals:         0       0       1       0       0       0       0
  2749 ;;Total ram usage:        1 bytes
  2750 ;; Hardware stack levels used: 1
  2751 ;; Hardware stack levels required when called: 11
  2752 ;; This function calls:
  2753 ;;		_current_block_is_in_illegal_position
  2754 ;;		_generate_garbage
  2755 ;;		_rotate_current_block
  2756 ;; This function is called by:
  2757 ;;		_main
  2758 ;; This function uses a non-reentrant model
  2759 ;;
  2760                           
  2761                           	psect	text8
  2762   00061C                     __ptext8:
  2763                           	callstack 0
  2764   00061C                     _check_inputs:
  2765                           	callstack 19
  2766   00061C                     
  2767                           ;tetris.c: 31:     if (PORTBbits.RB0 == 1 && prev_rb0 == 0) {
  2768   00061C  A081               	btfss	129,0,c	;volatile
  2769   00061E  EF13  F003         	goto	u5111
  2770   000622  EF15  F003         	goto	u5110
  2771   000626                     u5111:
  2772   000626  EF3D  F003         	goto	l4410
  2773   00062A                     u5110:
  2774   00062A  5057               	movf	_prev_rb0^0,w,c
  2775   00062C  A4D8               	btfss	status,2,c
  2776   00062E  EF1B  F003         	goto	u5121
  2777   000632  EF1D  F003         	goto	u5120
  2778   000636                     u5121:
  2779   000636  EF3D  F003         	goto	l4410
  2780   00063A                     u5120:
  2781   00063A                     
  2782                           ;tetris.c: 32:         _delay((unsigned long)((20)*(8000000/4000.0)));
  2783   00063A  0E34               	movlw	52
  2784   00063C  0101               	movlb	1	; () banked
  2785   00063E  6FE5               	movwf	??_check_inputs& (0+255),b
  2786   000640  0EF1               	movlw	241
  2787   000642                     u5387:
  2788   000642  2EE8               	decfsz	wreg,f,c
  2789   000644  D7FE               	bra	u5387
  2790   000646  2FE5               	decfsz	??_check_inputs& (0+255),f,b
  2791   000648  D7FC               	bra	u5387
  2792   00064A  D000               	nop2	
  2793   00064C                     
  2794                           ;tetris.c: 33:         if (PORTBbits.RB0 == 1) {
  2795   00064C  A081               	btfss	129,0,c	;volatile
  2796   00064E  EF2B  F003         	goto	u5131
  2797   000652  EF2D  F003         	goto	u5130
  2798   000656                     u5131:
  2799   000656  EF3D  F003         	goto	l4410
  2800   00065A                     u5130:
  2801   00065A                     
  2802                           ;tetris.c: 34:             rotate_current_block(dir_right);
  2803   00065A  0E01               	movlw	1
  2804   00065C  EC0C  F006         	call	_rotate_current_block
  2805   000660                     
  2806                           ;tetris.c: 35:             if(current_block_is_in_illegal_position()){
  2807   000660  ECE3  F00B         	call	_current_block_is_in_illegal_position	;wreg free
  2808   000664  0900               	iorlw	0
  2809   000666  B4D8               	btfsc	status,2,c
  2810   000668  EF38  F003         	goto	u5141
  2811   00066C  EF3A  F003         	goto	u5140
  2812   000670                     u5141:
  2813   000670  EF3D  F003         	goto	l4410
  2814   000674                     u5140:
  2815   000674                     
  2816                           ;tetris.c: 36:                 rotate_current_block(dir_left);
  2817   000674  0E00               	movlw	0
  2818   000676  EC0C  F006         	call	_rotate_current_block
  2819   00067A                     l4410:
  2820                           
  2821                           ;tetris.c: 40:     prev_rb0 = PORTBbits.RB0;
  2822   00067A  B081               	btfsc	129,0,c	;volatile
  2823   00067C  EF42  F003         	goto	u5151
  2824   000680  EF45  F003         	goto	u5150
  2825   000684                     u5151:
  2826   000684  0E01               	movlw	1
  2827   000686  EF46  F003         	goto	u5156
  2828   00068A                     u5150:
  2829   00068A  0E00               	movlw	0
  2830   00068C                     u5156:
  2831   00068C  6E57               	movwf	_prev_rb0^0,c
  2832   00068E                     
  2833                           ;tetris.c: 43:     if (PORTBbits.RB1 == 1 && prev_rb1 == 0) {
  2834   00068E  A281               	btfss	129,1,c	;volatile
  2835   000690  EF4C  F003         	goto	u5161
  2836   000694  EF4E  F003         	goto	u5160
  2837   000698                     u5161:
  2838   000698  EF6D  F003         	goto	l4424
  2839   00069C                     u5160:
  2840   00069C  5056               	movf	_prev_rb1^0,w,c
  2841   00069E  A4D8               	btfss	status,2,c
  2842   0006A0  EF54  F003         	goto	u5171
  2843   0006A4  EF56  F003         	goto	u5170
  2844   0006A8                     u5171:
  2845   0006A8  EF6D  F003         	goto	l4424
  2846   0006AC                     u5170:
  2847   0006AC                     
  2848                           ;tetris.c: 44:         if (PORTBbits.RB1 == 1) {
  2849   0006AC  A281               	btfss	129,1,c	;volatile
  2850   0006AE  EF5B  F003         	goto	u5181
  2851   0006B2  EF5D  F003         	goto	u5180
  2852   0006B6                     u5181:
  2853   0006B6  EF6D  F003         	goto	l4424
  2854   0006BA                     u5180:
  2855   0006BA                     
  2856                           ;tetris.c: 45:             rotate_current_block(dir_left);
  2857   0006BA  0E00               	movlw	0
  2858   0006BC  EC0C  F006         	call	_rotate_current_block
  2859   0006C0                     
  2860                           ;tetris.c: 46:             if(current_block_is_in_illegal_position()){
  2861   0006C0  ECE3  F00B         	call	_current_block_is_in_illegal_position	;wreg free
  2862   0006C4  0900               	iorlw	0
  2863   0006C6  B4D8               	btfsc	status,2,c
  2864   0006C8  EF68  F003         	goto	u5191
  2865   0006CC  EF6A  F003         	goto	u5190
  2866   0006D0                     u5191:
  2867   0006D0  EF6D  F003         	goto	l4424
  2868   0006D4                     u5190:
  2869   0006D4                     
  2870                           ;tetris.c: 47:                 rotate_current_block(dir_right);
  2871   0006D4  0E01               	movlw	1
  2872   0006D6  EC0C  F006         	call	_rotate_current_block
  2873   0006DA                     l4424:
  2874                           
  2875                           ;tetris.c: 51:     prev_rb1 = PORTBbits.RB1;
  2876   0006DA  B281               	btfsc	129,1,c	;volatile
  2877   0006DC  EF72  F003         	goto	u5201
  2878   0006E0  EF75  F003         	goto	u5200
  2879   0006E4                     u5201:
  2880   0006E4  0E01               	movlw	1
  2881   0006E6  EF76  F003         	goto	u5206
  2882   0006EA                     u5200:
  2883   0006EA  0E00               	movlw	0
  2884   0006EC                     u5206:
  2885   0006EC  6E56               	movwf	_prev_rb1^0,c
  2886   0006EE                     
  2887                           ;tetris.c: 54:     if (PORTBbits.RB2 == 1 && prev_rb2 == 0) {
  2888   0006EE  A481               	btfss	129,2,c	;volatile
  2889   0006F0  EF7C  F003         	goto	u5211
  2890   0006F4  EF7E  F003         	goto	u5210
  2891   0006F8                     u5211:
  2892   0006F8  EFA5  F003         	goto	l4440
  2893   0006FC                     u5210:
  2894   0006FC  5055               	movf	_prev_rb2^0,w,c
  2895   0006FE  A4D8               	btfss	status,2,c
  2896   000700  EF84  F003         	goto	u5221
  2897   000704  EF86  F003         	goto	u5220
  2898   000708                     u5221:
  2899   000708  EFA5  F003         	goto	l4440
  2900   00070C                     u5220:
  2901   00070C                     
  2902                           ;tetris.c: 55:         _delay((unsigned long)((20)*(8000000/4000.0)));
  2903   00070C  0E34               	movlw	52
  2904   00070E  0101               	movlb	1	; () banked
  2905   000710  6FE5               	movwf	??_check_inputs& (0+255),b
  2906   000712  0EF1               	movlw	241
  2907   000714                     u5397:
  2908   000714  2EE8               	decfsz	wreg,f,c
  2909   000716  D7FE               	bra	u5397
  2910   000718  2FE5               	decfsz	??_check_inputs& (0+255),f,b
  2911   00071A  D7FC               	bra	u5397
  2912   00071C  D000               	nop2	
  2913   00071E                     
  2914                           ;tetris.c: 56:         if (PORTBbits.RB2 == 1) {
  2915   00071E  A481               	btfss	129,2,c	;volatile
  2916   000720  EF94  F003         	goto	u5231
  2917   000724  EF96  F003         	goto	u5230
  2918   000728                     u5231:
  2919   000728  EFA5  F003         	goto	l4440
  2920   00072C                     u5230:
  2921   00072C                     
  2922                           ;tetris.c: 57:             block_location_x--;
  2923   00072C  0652               	decf	_block_location_x^0,f,c
  2924   00072E  A0D8               	btfss	status,0,c
  2925   000730  0653               	decf	(_block_location_x+1)^0,f,c
  2926   000732                     
  2927                           ;tetris.c: 58:             if(current_block_is_in_illegal_position()){
  2928   000732  ECE3  F00B         	call	_current_block_is_in_illegal_position	;wreg free
  2929   000736  0900               	iorlw	0
  2930   000738  B4D8               	btfsc	status,2,c
  2931   00073A  EFA1  F003         	goto	u5241
  2932   00073E  EFA3  F003         	goto	u5240
  2933   000742                     u5241:
  2934   000742  EFA5  F003         	goto	l4440
  2935   000746                     u5240:
  2936   000746                     
  2937                           ;tetris.c: 59:                 block_location_x++;
  2938   000746  4A52               	infsnz	_block_location_x^0,f,c
  2939   000748  2A53               	incf	(_block_location_x+1)^0,f,c
  2940   00074A                     l4440:
  2941                           
  2942                           ;tetris.c: 63:     prev_rb2 = PORTBbits.RB2;
  2943   00074A  B481               	btfsc	129,2,c	;volatile
  2944   00074C  EFAA  F003         	goto	u5251
  2945   000750  EFAD  F003         	goto	u5250
  2946   000754                     u5251:
  2947   000754  0E01               	movlw	1
  2948   000756  EFAE  F003         	goto	u5256
  2949   00075A                     u5250:
  2950   00075A  0E00               	movlw	0
  2951   00075C                     u5256:
  2952   00075C  6E55               	movwf	_prev_rb2^0,c
  2953   00075E                     
  2954                           ;tetris.c: 66:     if (PORTBbits.RB3 == 1 && prev_rb3 == 0) {
  2955   00075E  A681               	btfss	129,3,c	;volatile
  2956   000760  EFB4  F003         	goto	u5261
  2957   000764  EFB6  F003         	goto	u5260
  2958   000768                     u5261:
  2959   000768  EFDD  F003         	goto	l4456
  2960   00076C                     u5260:
  2961   00076C  5054               	movf	_prev_rb3^0,w,c
  2962   00076E  A4D8               	btfss	status,2,c
  2963   000770  EFBC  F003         	goto	u5271
  2964   000774  EFBE  F003         	goto	u5270
  2965   000778                     u5271:
  2966   000778  EFDD  F003         	goto	l4456
  2967   00077C                     u5270:
  2968   00077C                     
  2969                           ;tetris.c: 67:         _delay((unsigned long)((20)*(8000000/4000.0)));
  2970   00077C  0E34               	movlw	52
  2971   00077E  0101               	movlb	1	; () banked
  2972   000780  6FE5               	movwf	??_check_inputs& (0+255),b
  2973   000782  0EF1               	movlw	241
  2974   000784                     u5407:
  2975   000784  2EE8               	decfsz	wreg,f,c
  2976   000786  D7FE               	bra	u5407
  2977   000788  2FE5               	decfsz	??_check_inputs& (0+255),f,b
  2978   00078A  D7FC               	bra	u5407
  2979   00078C  D000               	nop2	
  2980   00078E                     
  2981                           ;tetris.c: 68:         if (PORTBbits.RB3 == 1) {
  2982   00078E  A681               	btfss	129,3,c	;volatile
  2983   000790  EFCC  F003         	goto	u5281
  2984   000794  EFCE  F003         	goto	u5280
  2985   000798                     u5281:
  2986   000798  EFDD  F003         	goto	l4456
  2987   00079C                     u5280:
  2988   00079C                     
  2989                           ;tetris.c: 69:             block_location_x++;
  2990   00079C  4A52               	infsnz	_block_location_x^0,f,c
  2991   00079E  2A53               	incf	(_block_location_x+1)^0,f,c
  2992   0007A0                     
  2993                           ;tetris.c: 70:             if(current_block_is_in_illegal_position()){
  2994   0007A0  ECE3  F00B         	call	_current_block_is_in_illegal_position	;wreg free
  2995   0007A4  0900               	iorlw	0
  2996   0007A6  B4D8               	btfsc	status,2,c
  2997   0007A8  EFD8  F003         	goto	u5291
  2998   0007AC  EFDA  F003         	goto	u5290
  2999   0007B0                     u5291:
  3000   0007B0  EFDD  F003         	goto	l4456
  3001   0007B4                     u5290:
  3002   0007B4                     
  3003                           ;tetris.c: 71:                 block_location_x--;
  3004   0007B4  0652               	decf	_block_location_x^0,f,c
  3005   0007B6  A0D8               	btfss	status,0,c
  3006   0007B8  0653               	decf	(_block_location_x+1)^0,f,c
  3007   0007BA                     l4456:
  3008                           
  3009                           ;tetris.c: 75:     prev_rb3 = PORTBbits.RB3;
  3010   0007BA  B681               	btfsc	129,3,c	;volatile
  3011   0007BC  EFE2  F003         	goto	u5301
  3012   0007C0  EFE5  F003         	goto	u5300
  3013   0007C4                     u5301:
  3014   0007C4  0E01               	movlw	1
  3015   0007C6  EFE6  F003         	goto	u5306
  3016   0007CA                     u5300:
  3017   0007CA  0E00               	movlw	0
  3018   0007CC                     u5306:
  3019   0007CC  6E54               	movwf	_prev_rb3^0,c
  3020   0007CE                     
  3021                           ;tetris.c: 78:     if (PORTBbits.RB4 == 0 && prev_rb4 == 1) {
  3022   0007CE  B881               	btfsc	129,4,c	;volatile
  3023   0007D0  EFEC  F003         	goto	u5311
  3024   0007D4  EFEE  F003         	goto	u5310
  3025   0007D8                     u5311:
  3026   0007D8  EF0D  F004         	goto	l4468
  3027   0007DC                     u5310:
  3028   0007DC  045F               	decf	_prev_rb4^0,w,c
  3029   0007DE  A4D8               	btfss	status,2,c
  3030   0007E0  EFF4  F003         	goto	u5321
  3031   0007E4  EFF6  F003         	goto	u5320
  3032   0007E8                     u5321:
  3033   0007E8  EF0D  F004         	goto	l4468
  3034   0007EC                     u5320:
  3035   0007EC                     
  3036                           ;tetris.c: 79:         _delay((unsigned long)((20)*(8000000/4000.0)));
  3037   0007EC  0E34               	movlw	52
  3038   0007EE  0101               	movlb	1	; () banked
  3039   0007F0  6FE5               	movwf	??_check_inputs& (0+255),b
  3040   0007F2  0EF1               	movlw	241
  3041   0007F4                     u5417:
  3042   0007F4  2EE8               	decfsz	wreg,f,c
  3043   0007F6  D7FE               	bra	u5417
  3044   0007F8  2FE5               	decfsz	??_check_inputs& (0+255),f,b
  3045   0007FA  D7FC               	bra	u5417
  3046   0007FC  D000               	nop2	
  3047   0007FE                     
  3048                           ;tetris.c: 80:         if (PORTBbits.RB4 == 0) {
  3049   0007FE  B881               	btfsc	129,4,c	;volatile
  3050   000800  EF04  F004         	goto	u5331
  3051   000804  EF06  F004         	goto	u5330
  3052   000808                     u5331:
  3053   000808  EF0D  F004         	goto	l4468
  3054   00080C                     u5330:
  3055   00080C                     
  3056                           ;tetris.c: 81:             generate_garbage(1);
  3057   00080C  0E00               	movlw	0
  3058   00080E  0101               	movlb	1	; () banked
  3059   000810  6FE4               	movwf	(generate_garbage@line_count+1)& (0+255),b
  3060   000812  0E01               	movlw	1
  3061   000814  6FE3               	movwf	generate_garbage@line_count& (0+255),b
  3062   000816  ECCF  F011         	call	_generate_garbage	;wreg free
  3063   00081A                     l4468:
  3064                           
  3065                           ;tetris.c: 84:     prev_rb4 = PORTBbits.RB4;
  3066   00081A  B881               	btfsc	129,4,c	;volatile
  3067   00081C  EF12  F004         	goto	u5341
  3068   000820  EF15  F004         	goto	u5340
  3069   000824                     u5341:
  3070   000824  0E01               	movlw	1
  3071   000826  EF16  F004         	goto	u5346
  3072   00082A                     u5340:
  3073   00082A  0E00               	movlw	0
  3074   00082C                     u5346:
  3075   00082C  6E5F               	movwf	_prev_rb4^0,c
  3076   00082E  0012               	return		;funcret
  3077   000830                     __end_of_check_inputs:
  3078                           	callstack 0
  3079                           
  3080 ;; *************** function _rotate_current_block *****************
  3081 ;; Defined at:
  3082 ;;		line 61 in file "./helpers.h"
  3083 ;; Parameters:    Size  Location     Type
  3084 ;;  d               1    wreg     enum E3246
  3085 ;; Auto vars:     Size  Location     Type
  3086 ;;  d               1    1[BANK0 ] enum E3246
  3087 ;;  temp            1    4[BANK0 ] _Bool 
  3088 ;;  temp            1    3[BANK0 ] _Bool 
  3089 ;;  temp            1    2[BANK0 ] _Bool 
  3090 ;;  j               2    9[BANK0 ] int 
  3091 ;;  k               2    7[BANK0 ] int 
  3092 ;;  j               2    5[BANK0 ] int 
  3093 ;;  i               2   13[BANK0 ] int 
  3094 ;;  i               2   11[BANK0 ] int 
  3095 ;; Return value:  Size  Location     Type
  3096 ;;                  1    wreg      void 
  3097 ;; Registers used:
  3098 ;;		wreg, fsr1l, fsr1h, fsr2l, fsr2h, status,2, status,0, prodl, prodh
  3099 ;; Tracked objects:
  3100 ;;		On entry : 0/0
  3101 ;;		On exit  : 0/0
  3102 ;;		Unchanged: 0/0
  3103 ;; Data sizes:     COMRAM   BANK0   BANK1   BANK2   BANK3   BANK4   BANK5
  3104 ;;      Params:         0       0       0       0       0       0       0
  3105 ;;      Locals:         0      14       0       0       0       0       0
  3106 ;;      Temps:          0       1       0       0       0       0       0
  3107 ;;      Totals:         0      15       0       0       0       0       0
  3108 ;;Total ram usage:       15 bytes
  3109 ;; Hardware stack levels used: 1
  3110 ;; Hardware stack levels required when called: 7
  3111 ;; This function calls:
  3112 ;;		Nothing
  3113 ;; This function is called by:
  3114 ;;		_check_inputs
  3115 ;; This function uses a non-reentrant model
  3116 ;;
  3117                           
  3118                           	psect	text9
  3119   000C18                     __ptext9:
  3120                           	callstack 0
  3121   000C18                     _rotate_current_block:
  3122                           	callstack 22
  3123                           
  3124                           ;incstack = 0
  3125                           ;rotate_current_block@d stored from wreg
  3126   000C18  0100               	movlb	0	; () banked
  3127   000C1A  6FE1               	movwf	rotate_current_block@d& (0+255),b
  3128   000C1C                     
  3129                           ;./helpers.h: 62:     if (current_block_type != O) {
  3130   000C1C  0458               	decf	_current_block_type^0,w,c
  3131   000C1E  B4D8               	btfsc	status,2,c
  3132   000C20  EF14  F006         	goto	u4491
  3133   000C24  EF16  F006         	goto	u4490
  3134   000C28                     u4491:
  3135   000C28  EF01  F007         	goto	l208
  3136   000C2C                     u4490:
  3137   000C2C                     
  3138                           ;./helpers.h: 64:         for (int i = 0; i < 3; i++) {
  3139   000C2C  0E00               	movlw	0
  3140   000C2E  0100               	movlb	0	; () banked
  3141   000C30  6FEC               	movwf	(rotate_current_block@i+1)& (0+255),b
  3142   000C32  0E00               	movlw	0
  3143   000C34  6FEB               	movwf	rotate_current_block@i& (0+255),b
  3144   000C36                     l4022:
  3145                           
  3146                           ; BSR set to: 0
  3147                           ;./helpers.h: 65:             for (int j = i + 1; j < 4; j++) {
  3148   000C36  0E01               	movlw	1
  3149   000C38  25EB               	addwf	rotate_current_block@i& (0+255),w,b
  3150   000C3A  6FE9               	movwf	rotate_current_block@j& (0+255),b
  3151   000C3C  0E00               	movlw	0
  3152   000C3E  21EC               	addwfc	(rotate_current_block@i+1)& (0+255),w,b
  3153   000C40  6FEA               	movwf	(rotate_current_block@j+1)& (0+255),b
  3154   000C42  BFEA               	btfsc	(rotate_current_block@j+1)& (0+255),7,b
  3155   000C44  EF2D  F006         	goto	u4501
  3156   000C48  51EA               	movf	(rotate_current_block@j+1)& (0+255),w,b
  3157   000C4A  E109               	bnz	u4500
  3158   000C4C  0E04               	movlw	4
  3159   000C4E  5DE9               	subwf	rotate_current_block@j& (0+255),w,b
  3160   000C50  A0D8               	btfss	status,0,c
  3161   000C52  EF2D  F006         	goto	u4501
  3162   000C56  EF2F  F006         	goto	u4500
  3163   000C5A                     u4501:
  3164   000C5A  EF31  F006         	goto	l4026
  3165   000C5E                     u4500:
  3166   000C5E  EF63  F006         	goto	l4036
  3167   000C62                     l4026:
  3168                           
  3169                           ; BSR set to: 0
  3170                           ;./helpers.h: 66:                 _Bool temp = current_block[i][j];
  3171   000C62  51EB               	movf	rotate_current_block@i& (0+255),w,b
  3172   000C64  0D04               	mullw	4
  3173   000C66  50F3               	movf	243,w,c
  3174   000C68  0F3E               	addlw	low _current_block
  3175   000C6A  25E9               	addwf	rotate_current_block@j& (0+255),w,b
  3176   000C6C  6ED9               	movwf	fsr2l,c
  3177   000C6E  6ADA               	clrf	fsr2h,c
  3178   000C70  50DF               	movf	indf2,w,c
  3179   000C72  6FE2               	movwf	rotate_current_block@temp& (0+255),b
  3180   000C74                     
  3181                           ; BSR set to: 0
  3182                           ;./helpers.h: 67:                 current_block[i][j] = current_block[j][i];
  3183   000C74  51E9               	movf	rotate_current_block@j& (0+255),w,b
  3184   000C76  0D04               	mullw	4
  3185   000C78  50F3               	movf	243,w,c
  3186   000C7A  0F3E               	addlw	low _current_block
  3187   000C7C  25EB               	addwf	rotate_current_block@i& (0+255),w,b
  3188   000C7E  6ED9               	movwf	fsr2l,c
  3189   000C80  6ADA               	clrf	fsr2h,c
  3190   000C82  51EB               	movf	rotate_current_block@i& (0+255),w,b
  3191   000C84  0D04               	mullw	4
  3192   000C86  50F3               	movf	243,w,c
  3193   000C88  0F3E               	addlw	low _current_block
  3194   000C8A  25E9               	addwf	rotate_current_block@j& (0+255),w,b
  3195   000C8C  6EE1               	movwf	fsr1l,c
  3196   000C8E  6AE2               	clrf	fsr1h,c
  3197   000C90  CFDF FFE7          	movff	indf2,indf1
  3198   000C94                     
  3199                           ; BSR set to: 0
  3200                           ;./helpers.h: 68:                 current_block[j][i] = temp;
  3201   000C94  51E9               	movf	rotate_current_block@j& (0+255),w,b
  3202   000C96  0D04               	mullw	4
  3203   000C98  50F3               	movf	243,w,c
  3204   000C9A  0F3E               	addlw	low _current_block
  3205   000C9C  25EB               	addwf	rotate_current_block@i& (0+255),w,b
  3206   000C9E  6ED9               	movwf	fsr2l,c
  3207   000CA0  6ADA               	clrf	fsr2h,c
  3208   000CA2  C0E2  FFDF         	movff	rotate_current_block@temp,indf2
  3209   000CA6                     
  3210                           ; BSR set to: 0
  3211                           ;./helpers.h: 69:             }
  3212   000CA6  4BE9               	infsnz	rotate_current_block@j& (0+255),f,b
  3213   000CA8  2BEA               	incf	(rotate_current_block@j+1)& (0+255),f,b
  3214   000CAA                     
  3215                           ; BSR set to: 0
  3216   000CAA  BFEA               	btfsc	(rotate_current_block@j+1)& (0+255),7,b
  3217   000CAC  EF61  F006         	goto	u4511
  3218   000CB0  51EA               	movf	(rotate_current_block@j+1)& (0+255),w,b
  3219   000CB2  E109               	bnz	u4510
  3220   000CB4  0E04               	movlw	4
  3221   000CB6  5DE9               	subwf	rotate_current_block@j& (0+255),w,b
  3222   000CB8  A0D8               	btfss	status,0,c
  3223   000CBA  EF61  F006         	goto	u4511
  3224   000CBE  EF63  F006         	goto	u4510
  3225   000CC2                     u4511:
  3226   000CC2  EF31  F006         	goto	l4026
  3227   000CC6                     u4510:
  3228   000CC6                     l4036:
  3229                           
  3230                           ; BSR set to: 0
  3231                           ;./helpers.h: 70:         }
  3232   000CC6  4BEB               	infsnz	rotate_current_block@i& (0+255),f,b
  3233   000CC8  2BEC               	incf	(rotate_current_block@i+1)& (0+255),f,b
  3234   000CCA                     
  3235                           ; BSR set to: 0
  3236   000CCA  BFEC               	btfsc	(rotate_current_block@i+1)& (0+255),7,b
  3237   000CCC  EF71  F006         	goto	u4521
  3238   000CD0  51EC               	movf	(rotate_current_block@i+1)& (0+255),w,b
  3239   000CD2  E109               	bnz	u4520
  3240   000CD4  0E03               	movlw	3
  3241   000CD6  5DEB               	subwf	rotate_current_block@i& (0+255),w,b
  3242   000CD8  A0D8               	btfss	status,0,c
  3243   000CDA  EF71  F006         	goto	u4521
  3244   000CDE  EF73  F006         	goto	u4520
  3245   000CE2                     u4521:
  3246   000CE2  EF1B  F006         	goto	l4022
  3247   000CE6                     u4520:
  3248   000CE6                     
  3249                           ; BSR set to: 0
  3250                           ;./helpers.h: 72:         for (int i = 0; i < 4; i++) {
  3251   000CE6  0E00               	movlw	0
  3252   000CE8  6FEE               	movwf	(rotate_current_block@i_923+1)& (0+255),b
  3253   000CEA  0E00               	movlw	0
  3254   000CEC  6FED               	movwf	rotate_current_block@i_923& (0+255),b
  3255   000CEE                     l4046:
  3256                           
  3257                           ; BSR set to: 0
  3258                           ;./helpers.h: 73:             int j = 0;
  3259   000CEE  0E00               	movlw	0
  3260   000CF0  6FE6               	movwf	(rotate_current_block@j_924+1)& (0+255),b
  3261   000CF2  0E00               	movlw	0
  3262   000CF4  6FE5               	movwf	rotate_current_block@j_924& (0+255),b
  3263                           
  3264                           ;./helpers.h: 74:             int k = (current_block_type == I) ? 3 : 2;
  3265   000CF6  5058               	movf	_current_block_type^0,w,c
  3266   000CF8  B4D8               	btfsc	status,2,c
  3267   000CFA  EF81  F006         	goto	u4531
  3268   000CFE  EF83  F006         	goto	u4530
  3269   000D02                     u4531:
  3270   000D02  EF89  F006         	goto	l4050
  3271   000D06                     u4530:
  3272   000D06                     
  3273                           ; BSR set to: 0
  3274   000D06  0E00               	movlw	0
  3275   000D08  6FE8               	movwf	(rotate_current_block@k+1)& (0+255),b
  3276   000D0A  0E02               	movlw	2
  3277   000D0C  6FE7               	movwf	rotate_current_block@k& (0+255),b
  3278   000D0E  EFE2  F006         	goto	l4070
  3279   000D12                     l4050:
  3280                           
  3281                           ; BSR set to: 0
  3282   000D12  0E00               	movlw	0
  3283   000D14  6FE8               	movwf	(rotate_current_block@k+1)& (0+255),b
  3284   000D16  0E03               	movlw	3
  3285   000D18  6FE7               	movwf	rotate_current_block@k& (0+255),b
  3286   000D1A  EFE2  F006         	goto	l4070
  3287   000D1E                     l4052:
  3288                           
  3289                           ; BSR set to: 0
  3290                           ;./helpers.h: 76:                 if (d == dir_right) {
  3291   000D1E  05E1               	decf	rotate_current_block@d& (0+255),w,b
  3292   000D20  A4D8               	btfss	status,2,c
  3293   000D22  EF95  F006         	goto	u4541
  3294   000D26  EF97  F006         	goto	u4540
  3295   000D2A                     u4541:
  3296   000D2A  EFBB  F006         	goto	l4060
  3297   000D2E                     u4540:
  3298   000D2E                     
  3299                           ; BSR set to: 0
  3300                           ;./helpers.h: 77:                     _Bool temp = current_block[i][j];
  3301   000D2E  51ED               	movf	rotate_current_block@i_923& (0+255),w,b
  3302   000D30  0D04               	mullw	4
  3303   000D32  50F3               	movf	243,w,c
  3304   000D34  0F3E               	addlw	low _current_block
  3305   000D36  25E5               	addwf	rotate_current_block@j_924& (0+255),w,b
  3306   000D38  6ED9               	movwf	fsr2l,c
  3307   000D3A  6ADA               	clrf	fsr2h,c
  3308   000D3C  50DF               	movf	indf2,w,c
  3309   000D3E  6FE3               	movwf	rotate_current_block@temp_926& (0+255),b
  3310   000D40                     
  3311                           ; BSR set to: 0
  3312                           ;./helpers.h: 78:                     current_block[i][j] = current_block[i][k];
  3313   000D40  51ED               	movf	rotate_current_block@i_923& (0+255),w,b
  3314   000D42  0D04               	mullw	4
  3315   000D44  50F3               	movf	243,w,c
  3316   000D46  0F3E               	addlw	low _current_block
  3317   000D48  25E7               	addwf	rotate_current_block@k& (0+255),w,b
  3318   000D4A  6ED9               	movwf	fsr2l,c
  3319   000D4C  6ADA               	clrf	fsr2h,c
  3320   000D4E  51ED               	movf	rotate_current_block@i_923& (0+255),w,b
  3321   000D50  0D04               	mullw	4
  3322   000D52  50F3               	movf	243,w,c
  3323   000D54  0F3E               	addlw	low _current_block
  3324   000D56  25E5               	addwf	rotate_current_block@j_924& (0+255),w,b
  3325   000D58  6EE1               	movwf	fsr1l,c
  3326   000D5A  6AE2               	clrf	fsr1h,c
  3327   000D5C  CFDF FFE7          	movff	indf2,indf1
  3328   000D60                     
  3329                           ; BSR set to: 0
  3330                           ;./helpers.h: 79:                     current_block[i][k] = temp;
  3331   000D60  51ED               	movf	rotate_current_block@i_923& (0+255),w,b
  3332   000D62  0D04               	mullw	4
  3333   000D64  50F3               	movf	243,w,c
  3334   000D66  0F3E               	addlw	low _current_block
  3335   000D68  25E7               	addwf	rotate_current_block@k& (0+255),w,b
  3336   000D6A  6ED9               	movwf	fsr2l,c
  3337   000D6C  6ADA               	clrf	fsr2h,c
  3338   000D6E  C0E3  FFDF         	movff	rotate_current_block@temp_926,indf2
  3339                           
  3340                           ;./helpers.h: 80:                 } else {
  3341   000D72  EFDD  F006         	goto	l4066
  3342   000D76                     l4060:
  3343                           
  3344                           ; BSR set to: 0
  3345                           ;./helpers.h: 81:                     _Bool temp = current_block[j][i];
  3346   000D76  51E5               	movf	rotate_current_block@j_924& (0+255),w,b
  3347   000D78  0D04               	mullw	4
  3348   000D7A  50F3               	movf	243,w,c
  3349   000D7C  0F3E               	addlw	low _current_block
  3350   000D7E  25ED               	addwf	rotate_current_block@i_923& (0+255),w,b
  3351   000D80  6ED9               	movwf	fsr2l,c
  3352   000D82  6ADA               	clrf	fsr2h,c
  3353   000D84  50DF               	movf	indf2,w,c
  3354   000D86  6FE4               	movwf	rotate_current_block@temp_927& (0+255),b
  3355   000D88                     
  3356                           ; BSR set to: 0
  3357                           ;./helpers.h: 82:                     current_block[j][i] = current_block[k][i];
  3358   000D88  51E7               	movf	rotate_current_block@k& (0+255),w,b
  3359   000D8A  0D04               	mullw	4
  3360   000D8C  50F3               	movf	243,w,c
  3361   000D8E  0F3E               	addlw	low _current_block
  3362   000D90  25ED               	addwf	rotate_current_block@i_923& (0+255),w,b
  3363   000D92  6ED9               	movwf	fsr2l,c
  3364   000D94  6ADA               	clrf	fsr2h,c
  3365   000D96  51E5               	movf	rotate_current_block@j_924& (0+255),w,b
  3366   000D98  0D04               	mullw	4
  3367   000D9A  50F3               	movf	243,w,c
  3368   000D9C  0F3E               	addlw	low _current_block
  3369   000D9E  25ED               	addwf	rotate_current_block@i_923& (0+255),w,b
  3370   000DA0  6EE1               	movwf	fsr1l,c
  3371   000DA2  6AE2               	clrf	fsr1h,c
  3372   000DA4  CFDF FFE7          	movff	indf2,indf1
  3373   000DA8                     
  3374                           ; BSR set to: 0
  3375                           ;./helpers.h: 83:                     current_block[k][i] = temp;
  3376   000DA8  51E7               	movf	rotate_current_block@k& (0+255),w,b
  3377   000DAA  0D04               	mullw	4
  3378   000DAC  50F3               	movf	243,w,c
  3379   000DAE  0F3E               	addlw	low _current_block
  3380   000DB0  25ED               	addwf	rotate_current_block@i_923& (0+255),w,b
  3381   000DB2  6ED9               	movwf	fsr2l,c
  3382   000DB4  6ADA               	clrf	fsr2h,c
  3383   000DB6  C0E4  FFDF         	movff	rotate_current_block@temp_927,indf2
  3384   000DBA                     l4066:
  3385                           
  3386                           ; BSR set to: 0
  3387                           ;./helpers.h: 85:                 j++; k--;
  3388   000DBA  4BE5               	infsnz	rotate_current_block@j_924& (0+255),f,b
  3389   000DBC  2BE6               	incf	(rotate_current_block@j_924+1)& (0+255),f,b
  3390   000DBE                     
  3391                           ; BSR set to: 0
  3392   000DBE  07E7               	decf	rotate_current_block@k& (0+255),f,b
  3393   000DC0  A0D8               	btfss	status,0,c
  3394   000DC2  07E8               	decf	(rotate_current_block@k+1)& (0+255),f,b
  3395   000DC4                     l4070:
  3396                           
  3397                           ; BSR set to: 0
  3398                           ;./helpers.h: 75:             while (j < k) {
  3399   000DC4  51E7               	movf	rotate_current_block@k& (0+255),w,b
  3400   000DC6  5DE5               	subwf	rotate_current_block@j_924& (0+255),w,b
  3401   000DC8  51E6               	movf	(rotate_current_block@j_924+1)& (0+255),w,b
  3402   000DCA  0A80               	xorlw	128
  3403   000DCC  6FE0               	movwf	??_rotate_current_block& (0+255),b
  3404   000DCE  51E8               	movf	(rotate_current_block@k+1)& (0+255),w,b
  3405   000DD0  0A80               	xorlw	128
  3406   000DD2  59E0               	subwfb	??_rotate_current_block& (0+255),w,b
  3407   000DD4  A0D8               	btfss	status,0,c
  3408   000DD6  EFEF  F006         	goto	u4551
  3409   000DDA  EFF1  F006         	goto	u4550
  3410   000DDE                     u4551:
  3411   000DDE  EF8F  F006         	goto	l4052
  3412   000DE2                     u4550:
  3413   000DE2                     
  3414                           ; BSR set to: 0
  3415                           ;./helpers.h: 87:         }
  3416   000DE2  4BED               	infsnz	rotate_current_block@i_923& (0+255),f,b
  3417   000DE4  2BEE               	incf	(rotate_current_block@i_923+1)& (0+255),f,b
  3418   000DE6                     
  3419                           ; BSR set to: 0
  3420   000DE6  BFEE               	btfsc	(rotate_current_block@i_923+1)& (0+255),7,b
  3421   000DE8  EFFF  F006         	goto	u4561
  3422   000DEC  51EE               	movf	(rotate_current_block@i_923+1)& (0+255),w,b
  3423   000DEE  E109               	bnz	u4560
  3424   000DF0  0E04               	movlw	4
  3425   000DF2  5DED               	subwf	rotate_current_block@i_923& (0+255),w,b
  3426   000DF4  A0D8               	btfss	status,0,c
  3427   000DF6  EFFF  F006         	goto	u4561
  3428   000DFA  EF01  F007         	goto	u4560
  3429   000DFE                     u4561:
  3430   000DFE  EF77  F006         	goto	l4046
  3431   000E02                     u4560:
  3432   000E02                     l208:
  3433   000E02  0012               	return		;funcret
  3434   000E04                     __end_of_rotate_current_block:
  3435                           	callstack 0
  3436                           
  3437 ;; *************** function _generate_garbage *****************
  3438 ;; Defined at:
  3439 ;;		line 195 in file "./helpers.h"
  3440 ;; Parameters:    Size  Location     Type
  3441 ;;  line_count      2   19[BANK1 ] int 
  3442 ;; Auto vars:     Size  Location     Type
  3443 ;;  bottom_row_i    2    0        const int 
  3444 ;; Return value:  Size  Location     Type
  3445 ;;                  1    wreg      void 
  3446 ;; Registers used:
  3447 ;;		wreg, fsr1l, fsr1h, fsr2l, fsr2h, status,2, status,0, prodl, prodh, cstack
  3448 ;; Tracked objects:
  3449 ;;		On entry : 0/0
  3450 ;;		On exit  : 0/0
  3451 ;;		Unchanged: 0/0
  3452 ;; Data sizes:     COMRAM   BANK0   BANK1   BANK2   BANK3   BANK4   BANK5
  3453 ;;      Params:         0       0       2       0       0       0       0
  3454 ;;      Locals:         0       0       0       0       0       0       0
  3455 ;;      Temps:          0       0       0       0       0       0       0
  3456 ;;      Totals:         0       0       2       0       0       0       0
  3457 ;;Total ram usage:        2 bytes
  3458 ;; Hardware stack levels used: 1
  3459 ;; Hardware stack levels required when called: 10
  3460 ;; This function calls:
  3461 ;;		_check_for_full_rows
  3462 ;;		_current_block_is_in_illegal_position
  3463 ;;		_drop_block_from_sky
  3464 ;;		_memmove
  3465 ;;		_memset
  3466 ;;		_reset_game
  3467 ;;		_solidify_current_block
  3468 ;; This function is called by:
  3469 ;;		_check_inputs
  3470 ;; This function uses a non-reentrant model
  3471 ;;
  3472                           
  3473                           	psect	text10
  3474   00239E                     __ptext10:
  3475                           	callstack 0
  3476   00239E                     _generate_garbage:
  3477                           	callstack 19
  3478   00239E                     
  3479                           ;./helpers.h: 197:     memmove(&display_matrix[0][0],
  3480   00239E  0E10               	movlw	low _display_matrix
  3481   0023A0  0100               	movlb	0	; () banked
  3482   0023A2  6FE0               	movwf	memmove@d1& (0+255),b
  3483   0023A4  0E01               	movlw	high _display_matrix
  3484   0023A6  6FE1               	movwf	(memmove@d1+1)& (0+255),b
  3485   0023A8  0E18               	movlw	low (_display_matrix+8)
  3486   0023AA  6FE2               	movwf	memmove@s1& (0+255),b
  3487   0023AC  0E01               	movlw	high (_display_matrix+8)
  3488   0023AE  6FE3               	movwf	(memmove@s1+1)& (0+255),b
  3489   0023B0  0E00               	movlw	0
  3490   0023B2  6FE5               	movwf	(memmove@n+1)& (0+255),b
  3491   0023B4  0E78               	movlw	120
  3492   0023B6  6FE4               	movwf	memmove@n& (0+255),b
  3493   0023B8  ECF1  F007         	call	_memmove	;wreg free
  3494   0023BC                     
  3495                           ;./helpers.h: 204:     memset(&display_matrix[bottom_row_index][0], 1, sizeof(display_ma
      +                          trix[0]));
  3496   0023BC  0E88               	movlw	low (_display_matrix+120)
  3497   0023BE  0100               	movlb	0	; () banked
  3498   0023C0  6FE0               	movwf	memset@dest& (0+255),b
  3499   0023C2  0E01               	movlw	high (_display_matrix+120)
  3500   0023C4  6FE1               	movwf	(memset@dest+1)& (0+255),b
  3501   0023C6  0E00               	movlw	0
  3502   0023C8  6FE3               	movwf	(memset@c+1)& (0+255),b
  3503   0023CA  0E01               	movlw	1
  3504   0023CC  6FE2               	movwf	memset@c& (0+255),b
  3505   0023CE  0E00               	movlw	0
  3506   0023D0  6FE5               	movwf	(memset@n+1)& (0+255),b
  3507   0023D2  0E08               	movlw	8
  3508   0023D4  6FE4               	movwf	memset@n& (0+255),b
  3509   0023D6  EC6D  F015         	call	_memset	;wreg free
  3510   0023DA                     
  3511                           ;./helpers.h: 205:     display_matrix[bottom_row_index][gap_position] = 0;
  3512   0023DA  0E88               	movlw	low (_display_matrix+120)
  3513   0023DC  0100               	movlb	0	; () banked
  3514   0023DE  25FA               	addwf	_gap_position& (0+255),w,b
  3515   0023E0  6ED9               	movwf	fsr2l,c
  3516   0023E2  0E01               	movlw	high (_display_matrix+120)
  3517   0023E4  21FB               	addwfc	(_gap_position+1)& (0+255),w,b
  3518   0023E6  6EDA               	movwf	fsr2h,c
  3519   0023E8  6ADF               	clrf	indf2,c
  3520   0023EA                     
  3521                           ; BSR set to: 0
  3522                           ;./helpers.h: 207:     if (current_block_is_in_illegal_position()) {
  3523   0023EA  ECE3  F00B         	call	_current_block_is_in_illegal_position	;wreg free
  3524   0023EE  0900               	iorlw	0
  3525   0023F0  B4D8               	btfsc	status,2,c
  3526   0023F2  EFFD  F011         	goto	u4571
  3527   0023F6  EFFF  F011         	goto	u4570
  3528   0023FA                     u4571:
  3529   0023FA  EF16  F012         	goto	l291
  3530   0023FE                     u4570:
  3531   0023FE                     
  3532                           ;./helpers.h: 208:         block_location_y--;
  3533   0023FE  0650               	decf	_block_location_y^0,f,c
  3534   002400  A0D8               	btfss	status,0,c
  3535   002402  0651               	decf	(_block_location_y+1)^0,f,c
  3536   002404                     
  3537                           ;./helpers.h: 209:         solidify_current_block();
  3538   002404  ECAA  F00D         	call	_solidify_current_block	;wreg free
  3539   002408                     
  3540                           ;./helpers.h: 210:         check_for_full_rows();
  3541   002408  EC18  F004         	call	_check_for_full_rows	;wreg free
  3542   00240C                     
  3543                           ;./helpers.h: 211:         drop_block_from_sky();
  3544   00240C  EC34  F00E         	call	_drop_block_from_sky	;wreg free
  3545   002410                     
  3546                           ;./helpers.h: 212:         if (current_block_is_in_illegal_position()) {
  3547   002410  ECE3  F00B         	call	_current_block_is_in_illegal_position	;wreg free
  3548   002414  0900               	iorlw	0
  3549   002416  B4D8               	btfsc	status,2,c
  3550   002418  EF10  F012         	goto	u4581
  3551   00241C  EF12  F012         	goto	u4580
  3552   002420                     u4581:
  3553   002420  EF16  F012         	goto	l291
  3554   002424                     u4580:
  3555   002424                     
  3556                           ;./helpers.h: 213:             reset_game();
  3557   002424  EC55  F010         	call	_reset_game	;wreg free
  3558   002428                     
  3559                           ;./helpers.h: 214:             drop_block_from_sky();
  3560   002428  EC34  F00E         	call	_drop_block_from_sky	;wreg free
  3561   00242C                     l291:
  3562   00242C  0012               	return		;funcret
  3563   00242E                     __end_of_generate_garbage:
  3564                           	callstack 0
  3565                           
  3566 ;; *************** function _solidify_current_block *****************
  3567 ;; Defined at:
  3568 ;;		line 105 in file "./helpers.h"
  3569 ;; Parameters:    Size  Location     Type
  3570 ;;		None
  3571 ;; Auto vars:     Size  Location     Type
  3572 ;;  y               2    6[BANK0 ] int 
  3573 ;;  x               2    4[BANK0 ] int 
  3574 ;;  j               2   10[BANK0 ] int 
  3575 ;;  i               2    8[BANK0 ] int 
  3576 ;; Return value:  Size  Location     Type
  3577 ;;                  1    wreg      void 
  3578 ;; Registers used:
  3579 ;;		wreg, fsr2l, fsr2h, status,2, status,0, prodl, prodh
  3580 ;; Tracked objects:
  3581 ;;		On entry : 0/0
  3582 ;;		On exit  : 0/0
  3583 ;;		Unchanged: 0/0
  3584 ;; Data sizes:     COMRAM   BANK0   BANK1   BANK2   BANK3   BANK4   BANK5
  3585 ;;      Params:         0       0       0       0       0       0       0
  3586 ;;      Locals:         0       8       0       0       0       0       0
  3587 ;;      Temps:          0       4       0       0       0       0       0
  3588 ;;      Totals:         0      12       0       0       0       0       0
  3589 ;;Total ram usage:       12 bytes
  3590 ;; Hardware stack levels used: 1
  3591 ;; Hardware stack levels required when called: 7
  3592 ;; This function calls:
  3593 ;;		Nothing
  3594 ;; This function is called by:
  3595 ;;		_game_step
  3596 ;;		_generate_garbage
  3597 ;; This function uses a non-reentrant model
  3598 ;;
  3599                           
  3600                           	psect	text11
  3601   001B54                     __ptext11:
  3602                           	callstack 0
  3603   001B54                     _solidify_current_block:
  3604                           	callstack 22
  3605   001B54                     
  3606                           ;./helpers.h: 106:     for (int i = 0; i < 4; i++) {
  3607   001B54  0E00               	movlw	0
  3608   001B56  0100               	movlb	0	; () banked
  3609   001B58  6FE9               	movwf	(solidify_current_block@i+1)& (0+255),b
  3610   001B5A  0E00               	movlw	0
  3611   001B5C  6FE8               	movwf	solidify_current_block@i& (0+255),b
  3612   001B5E                     l3798:
  3613                           
  3614                           ; BSR set to: 0
  3615                           ;./helpers.h: 107:         for (int j = 0; j < 4; j++) {
  3616   001B5E  0E00               	movlw	0
  3617   001B60  6FEB               	movwf	(solidify_current_block@j+1)& (0+255),b
  3618   001B62  0E00               	movlw	0
  3619   001B64  6FEA               	movwf	solidify_current_block@j& (0+255),b
  3620   001B66                     l3804:
  3621                           
  3622                           ; BSR set to: 0
  3623                           ;./helpers.h: 108:             if (current_block[i][j]) {
  3624   001B66  51E8               	movf	solidify_current_block@i& (0+255),w,b
  3625   001B68  0D04               	mullw	4
  3626   001B6A  50F3               	movf	243,w,c
  3627   001B6C  0F3E               	addlw	low _current_block
  3628   001B6E  25EA               	addwf	solidify_current_block@j& (0+255),w,b
  3629   001B70  6ED9               	movwf	fsr2l,c
  3630   001B72  6ADA               	clrf	fsr2h,c
  3631   001B74  50DF               	movf	indf2,w,c
  3632   001B76  B4D8               	btfsc	status,2,c
  3633   001B78  EFC0  F00D         	goto	u4181
  3634   001B7C  EFC2  F00D         	goto	u4180
  3635   001B80                     u4181:
  3636   001B80  EF13  F00E         	goto	l3816
  3637   001B84                     u4180:
  3638   001B84                     
  3639                           ; BSR set to: 0
  3640                           ;./helpers.h: 109:                 int x = block_location_x + j;
  3641   001B84  51EA               	movf	solidify_current_block@j& (0+255),w,b
  3642   001B86  2452               	addwf	_block_location_x^0,w,c
  3643   001B88  6FE4               	movwf	solidify_current_block@x& (0+255),b
  3644   001B8A  51EB               	movf	(solidify_current_block@j+1)& (0+255),w,b
  3645   001B8C  2053               	addwfc	(_block_location_x+1)^0,w,c
  3646   001B8E  6FE5               	movwf	(solidify_current_block@x+1)& (0+255),b
  3647                           
  3648                           ;./helpers.h: 110:                 int y = block_location_y + i;
  3649   001B90  51E8               	movf	solidify_current_block@i& (0+255),w,b
  3650   001B92  2450               	addwf	_block_location_y^0,w,c
  3651   001B94  6FE6               	movwf	solidify_current_block@y& (0+255),b
  3652   001B96  51E9               	movf	(solidify_current_block@i+1)& (0+255),w,b
  3653   001B98  2051               	addwfc	(_block_location_y+1)^0,w,c
  3654   001B9A  6FE7               	movwf	(solidify_current_block@y+1)& (0+255),b
  3655                           
  3656                           ;./helpers.h: 111:                 if (x >= 0 && x < 8 && y >= 0 && y < 16) {
  3657   001B9C  BFE5               	btfsc	(solidify_current_block@x+1)& (0+255),7,b
  3658   001B9E  EFD3  F00D         	goto	u4191
  3659   001BA2  EFD5  F00D         	goto	u4190
  3660   001BA6                     u4191:
  3661   001BA6  EF13  F00E         	goto	l3816
  3662   001BAA                     u4190:
  3663   001BAA                     
  3664                           ; BSR set to: 0
  3665   001BAA  BFE5               	btfsc	(solidify_current_block@x+1)& (0+255),7,b
  3666   001BAC  EFE3  F00D         	goto	u4200
  3667   001BB0  51E5               	movf	(solidify_current_block@x+1)& (0+255),w,b
  3668   001BB2  E107               	bnz	u4201
  3669   001BB4  0E08               	movlw	8
  3670   001BB6  5DE4               	subwf	solidify_current_block@x& (0+255),w,b
  3671   001BB8  B0D8               	btfsc	status,0,c
  3672   001BBA  EFE1  F00D         	goto	u4201
  3673   001BBE  EFE3  F00D         	goto	u4200
  3674   001BC2                     u4201:
  3675   001BC2  EF13  F00E         	goto	l3816
  3676   001BC6                     u4200:
  3677   001BC6                     
  3678                           ; BSR set to: 0
  3679   001BC6  BFE7               	btfsc	(solidify_current_block@y+1)& (0+255),7,b
  3680   001BC8  EFE8  F00D         	goto	u4211
  3681   001BCC  EFEA  F00D         	goto	u4210
  3682   001BD0                     u4211:
  3683   001BD0  EF13  F00E         	goto	l3816
  3684   001BD4                     u4210:
  3685   001BD4                     
  3686                           ; BSR set to: 0
  3687   001BD4  BFE7               	btfsc	(solidify_current_block@y+1)& (0+255),7,b
  3688   001BD6  EFF8  F00D         	goto	u4220
  3689   001BDA  51E7               	movf	(solidify_current_block@y+1)& (0+255),w,b
  3690   001BDC  E107               	bnz	u4221
  3691   001BDE  0E10               	movlw	16
  3692   001BE0  5DE6               	subwf	solidify_current_block@y& (0+255),w,b
  3693   001BE2  B0D8               	btfsc	status,0,c
  3694   001BE4  EFF6  F00D         	goto	u4221
  3695   001BE8  EFF8  F00D         	goto	u4220
  3696   001BEC                     u4221:
  3697   001BEC  EF13  F00E         	goto	l3816
  3698   001BF0                     u4220:
  3699   001BF0                     
  3700                           ; BSR set to: 0
  3701                           ;./helpers.h: 112:                     display_matrix[y][x] = 1;
  3702   001BF0  C0E6  F0E0         	movff	solidify_current_block@y,??_solidify_current_block
  3703   001BF4  C0E7  F0E1         	movff	solidify_current_block@y+1,??_solidify_current_block+1
  3704   001BF8  90D8               	bcf	status,0,c
  3705   001BFA  37E0               	rlcf	??_solidify_current_block& (0+255),f,b
  3706   001BFC  37E1               	rlcf	(??_solidify_current_block+1)& (0+255),f,b
  3707   001BFE  90D8               	bcf	status,0,c
  3708   001C00  37E0               	rlcf	??_solidify_current_block& (0+255),f,b
  3709   001C02  37E1               	rlcf	(??_solidify_current_block+1)& (0+255),f,b
  3710   001C04  90D8               	bcf	status,0,c
  3711   001C06  37E0               	rlcf	??_solidify_current_block& (0+255),f,b
  3712   001C08  37E1               	rlcf	(??_solidify_current_block+1)& (0+255),f,b
  3713   001C0A  0E10               	movlw	low _display_matrix
  3714   001C0C  25E0               	addwf	??_solidify_current_block& (0+255),w,b
  3715   001C0E  6FE2               	movwf	(??_solidify_current_block+2)& (0+255),b
  3716   001C10  0E01               	movlw	high _display_matrix
  3717   001C12  21E1               	addwfc	(??_solidify_current_block+1)& (0+255),w,b
  3718   001C14  6FE3               	movwf	(??_solidify_current_block+3)& (0+255),b
  3719   001C16  51E4               	movf	solidify_current_block@x& (0+255),w,b
  3720   001C18  25E2               	addwf	(??_solidify_current_block+2)& (0+255),w,b
  3721   001C1A  6ED9               	movwf	fsr2l,c
  3722   001C1C  51E5               	movf	(solidify_current_block@x+1)& (0+255),w,b
  3723   001C1E  21E3               	addwfc	(??_solidify_current_block+3)& (0+255),w,b
  3724   001C20  6EDA               	movwf	fsr2h,c
  3725   001C22  0E01               	movlw	1
  3726   001C24  6EDF               	movwf	indf2,c
  3727   001C26                     l3816:
  3728                           
  3729                           ; BSR set to: 0
  3730                           ;./helpers.h: 115:         }
  3731   001C26  4BEA               	infsnz	solidify_current_block@j& (0+255),f,b
  3732   001C28  2BEB               	incf	(solidify_current_block@j+1)& (0+255),f,b
  3733   001C2A                     
  3734                           ; BSR set to: 0
  3735   001C2A  BFEB               	btfsc	(solidify_current_block@j+1)& (0+255),7,b
  3736   001C2C  EF21  F00E         	goto	u4231
  3737   001C30  51EB               	movf	(solidify_current_block@j+1)& (0+255),w,b
  3738   001C32  E109               	bnz	u4230
  3739   001C34  0E04               	movlw	4
  3740   001C36  5DEA               	subwf	solidify_current_block@j& (0+255),w,b
  3741   001C38  A0D8               	btfss	status,0,c
  3742   001C3A  EF21  F00E         	goto	u4231
  3743   001C3E  EF23  F00E         	goto	u4230
  3744   001C42                     u4231:
  3745   001C42  EFB3  F00D         	goto	l3804
  3746   001C46                     u4230:
  3747   001C46                     
  3748                           ; BSR set to: 0
  3749                           ;./helpers.h: 116:     }
  3750   001C46  4BE8               	infsnz	solidify_current_block@i& (0+255),f,b
  3751   001C48  2BE9               	incf	(solidify_current_block@i+1)& (0+255),f,b
  3752   001C4A                     
  3753                           ; BSR set to: 0
  3754   001C4A  BFE9               	btfsc	(solidify_current_block@i+1)& (0+255),7,b
  3755   001C4C  EF31  F00E         	goto	u4241
  3756   001C50  51E9               	movf	(solidify_current_block@i+1)& (0+255),w,b
  3757   001C52  E109               	bnz	u4240
  3758   001C54  0E04               	movlw	4
  3759   001C56  5DE8               	subwf	solidify_current_block@i& (0+255),w,b
  3760   001C58  A0D8               	btfss	status,0,c
  3761   001C5A  EF31  F00E         	goto	u4241
  3762   001C5E  EF33  F00E         	goto	u4240
  3763   001C62                     u4241:
  3764   001C62  EFAF  F00D         	goto	l3798
  3765   001C66                     u4240:
  3766   001C66                     
  3767                           ; BSR set to: 0
  3768   001C66  0012               	return		;funcret
  3769   001C68                     __end_of_solidify_current_block:
  3770                           	callstack 0
  3771                           
  3772 ;; *************** function _reset_game *****************
  3773 ;; Defined at:
  3774 ;;		line 140 in file "./helpers.h"
  3775 ;; Parameters:    Size  Location     Type
  3776 ;;		None
  3777 ;; Auto vars:     Size  Location     Type
  3778 ;;  j               2   12[BANK0 ] int 
  3779 ;;  i               2   10[BANK0 ] int 
  3780 ;; Return value:  Size  Location     Type
  3781 ;;                  1    wreg      void 
  3782 ;; Registers used:
  3783 ;;		wreg, fsr2l, fsr2h, status,2, status,0, cstack
  3784 ;; Tracked objects:
  3785 ;;		On entry : 0/0
  3786 ;;		On exit  : 0/0
  3787 ;;		Unchanged: 0/0
  3788 ;; Data sizes:     COMRAM   BANK0   BANK1   BANK2   BANK3   BANK4   BANK5
  3789 ;;      Params:         0       0       0       0       0       0       0
  3790 ;;      Locals:         0       4       0       0       0       0       0
  3791 ;;      Temps:          0       4       0       0       0       0       0
  3792 ;;      Totals:         0       8       0       0       0       0       0
  3793 ;;Total ram usage:        8 bytes
  3794 ;; Hardware stack levels used: 1
  3795 ;; Hardware stack levels required when called: 8
  3796 ;; This function calls:
  3797 ;;		_update_score
  3798 ;; This function is called by:
  3799 ;;		_game_step
  3800 ;;		_generate_garbage
  3801 ;;		_main
  3802 ;; This function uses a non-reentrant model
  3803 ;;
  3804                           
  3805                           	psect	text12
  3806   0020AA                     __ptext12:
  3807                           	callstack 0
  3808   0020AA                     _reset_game:
  3809                           	callstack 22
  3810   0020AA                     
  3811                           ;./helpers.h: 141:     score = 0;
  3812   0020AA  0E00               	movlw	0
  3813   0020AC  6E4F               	movwf	(_score+1)^0,c
  3814   0020AE  0E00               	movlw	0
  3815   0020B0  6E4E               	movwf	_score^0,c
  3816                           
  3817                           ;./helpers.h: 142:     game_speed_ticks = 16;
  3818   0020B2  0E10               	movlw	16
  3819   0020B4  6E60               	movwf	_game_speed_ticks^0,c
  3820                           
  3821                           ;./helpers.h: 143:     for (int i = 0; i < 16; i++) {
  3822   0020B6  0E00               	movlw	0
  3823   0020B8  0100               	movlb	0	; () banked
  3824   0020BA  6FEB               	movwf	(reset_game@i+1)& (0+255),b
  3825   0020BC  0E00               	movlw	0
  3826   0020BE  6FEA               	movwf	reset_game@i& (0+255),b
  3827   0020C0                     l3896:
  3828                           
  3829                           ; BSR set to: 0
  3830                           ;./helpers.h: 144:         for (int j = 0; j < 8; j++) {
  3831   0020C0  0E00               	movlw	0
  3832   0020C2  6FED               	movwf	(reset_game@j+1)& (0+255),b
  3833   0020C4  0E00               	movlw	0
  3834   0020C6  6FEC               	movwf	reset_game@j& (0+255),b
  3835   0020C8                     l3902:
  3836                           
  3837                           ; BSR set to: 0
  3838                           ;./helpers.h: 145:             display_matrix[i][j] = 0;
  3839   0020C8  C0EA  F0E6         	movff	reset_game@i,??_reset_game
  3840   0020CC  C0EB  F0E7         	movff	reset_game@i+1,??_reset_game+1
  3841   0020D0  90D8               	bcf	status,0,c
  3842   0020D2  37E6               	rlcf	??_reset_game& (0+255),f,b
  3843   0020D4  37E7               	rlcf	(??_reset_game+1)& (0+255),f,b
  3844   0020D6  90D8               	bcf	status,0,c
  3845   0020D8  37E6               	rlcf	??_reset_game& (0+255),f,b
  3846   0020DA  37E7               	rlcf	(??_reset_game+1)& (0+255),f,b
  3847   0020DC  90D8               	bcf	status,0,c
  3848   0020DE  37E6               	rlcf	??_reset_game& (0+255),f,b
  3849   0020E0  37E7               	rlcf	(??_reset_game+1)& (0+255),f,b
  3850   0020E2  0E10               	movlw	low _display_matrix
  3851   0020E4  25E6               	addwf	??_reset_game& (0+255),w,b
  3852   0020E6  6FE8               	movwf	(??_reset_game+2)& (0+255),b
  3853   0020E8  0E01               	movlw	high _display_matrix
  3854   0020EA  21E7               	addwfc	(??_reset_game+1)& (0+255),w,b
  3855   0020EC  6FE9               	movwf	(??_reset_game+3)& (0+255),b
  3856   0020EE  51EC               	movf	reset_game@j& (0+255),w,b
  3857   0020F0  25E8               	addwf	(??_reset_game+2)& (0+255),w,b
  3858   0020F2  6ED9               	movwf	fsr2l,c
  3859   0020F4  51ED               	movf	(reset_game@j+1)& (0+255),w,b
  3860   0020F6  21E9               	addwfc	(??_reset_game+3)& (0+255),w,b
  3861   0020F8  6EDA               	movwf	fsr2h,c
  3862   0020FA  6ADF               	clrf	indf2,c
  3863                           
  3864                           ;./helpers.h: 146:             board[i][j] = 0;
  3865   0020FC  C0EA  F0E6         	movff	reset_game@i,??_reset_game
  3866   002100  C0EB  F0E7         	movff	reset_game@i+1,??_reset_game+1
  3867   002104  90D8               	bcf	status,0,c
  3868   002106  37E6               	rlcf	??_reset_game& (0+255),f,b
  3869   002108  37E7               	rlcf	(??_reset_game+1)& (0+255),f,b
  3870   00210A  90D8               	bcf	status,0,c
  3871   00210C  37E6               	rlcf	??_reset_game& (0+255),f,b
  3872   00210E  37E7               	rlcf	(??_reset_game+1)& (0+255),f,b
  3873   002110  90D8               	bcf	status,0,c
  3874   002112  37E6               	rlcf	??_reset_game& (0+255),f,b
  3875   002114  37E7               	rlcf	(??_reset_game+1)& (0+255),f,b
  3876   002116  0E00               	movlw	low _board
  3877   002118  25E6               	addwf	??_reset_game& (0+255),w,b
  3878   00211A  6FE8               	movwf	(??_reset_game+2)& (0+255),b
  3879   00211C  0E02               	movlw	high _board
  3880   00211E  21E7               	addwfc	(??_reset_game+1)& (0+255),w,b
  3881   002120  6FE9               	movwf	(??_reset_game+3)& (0+255),b
  3882   002122  51EC               	movf	reset_game@j& (0+255),w,b
  3883   002124  25E8               	addwf	(??_reset_game+2)& (0+255),w,b
  3884   002126  6ED9               	movwf	fsr2l,c
  3885   002128  51ED               	movf	(reset_game@j+1)& (0+255),w,b
  3886   00212A  21E9               	addwfc	(??_reset_game+3)& (0+255),w,b
  3887   00212C  6EDA               	movwf	fsr2h,c
  3888   00212E  6ADF               	clrf	indf2,c
  3889   002130                     
  3890                           ; BSR set to: 0
  3891                           ;./helpers.h: 147:         }
  3892   002130  4BEC               	infsnz	reset_game@j& (0+255),f,b
  3893   002132  2BED               	incf	(reset_game@j+1)& (0+255),f,b
  3894   002134                     
  3895                           ; BSR set to: 0
  3896   002134  BFED               	btfsc	(reset_game@j+1)& (0+255),7,b
  3897   002136  EFA6  F010         	goto	u4341
  3898   00213A  51ED               	movf	(reset_game@j+1)& (0+255),w,b
  3899   00213C  E109               	bnz	u4340
  3900   00213E  0E08               	movlw	8
  3901   002140  5DEC               	subwf	reset_game@j& (0+255),w,b
  3902   002142  A0D8               	btfss	status,0,c
  3903   002144  EFA6  F010         	goto	u4341
  3904   002148  EFA8  F010         	goto	u4340
  3905   00214C                     u4341:
  3906   00214C  EF64  F010         	goto	l3902
  3907   002150                     u4340:
  3908   002150                     
  3909                           ; BSR set to: 0
  3910                           ;./helpers.h: 148:     }
  3911   002150  4BEA               	infsnz	reset_game@i& (0+255),f,b
  3912   002152  2BEB               	incf	(reset_game@i+1)& (0+255),f,b
  3913   002154                     
  3914                           ; BSR set to: 0
  3915   002154  BFEB               	btfsc	(reset_game@i+1)& (0+255),7,b
  3916   002156  EFB6  F010         	goto	u4351
  3917   00215A  51EB               	movf	(reset_game@i+1)& (0+255),w,b
  3918   00215C  E109               	bnz	u4350
  3919   00215E  0E10               	movlw	16
  3920   002160  5DEA               	subwf	reset_game@i& (0+255),w,b
  3921   002162  A0D8               	btfss	status,0,c
  3922   002164  EFB6  F010         	goto	u4351
  3923   002168  EFB8  F010         	goto	u4350
  3924   00216C                     u4351:
  3925   00216C  EF60  F010         	goto	l3896
  3926   002170                     u4350:
  3927   002170                     
  3928                           ; BSR set to: 0
  3929                           ;./helpers.h: 149:     update_score();
  3930   002170  EC9D  F012         	call	_update_score	;wreg free
  3931   002174  0012               	return		;funcret
  3932   002176                     __end_of_reset_game:
  3933                           	callstack 0
  3934                           
  3935 ;; *************** function _memset *****************
  3936 ;; Defined at:
  3937 ;;		line 3 in file "C:\Program Files\Microchip\xc8\v3.00\pic\sources\c99\common\memset.c"
  3938 ;; Parameters:    Size  Location     Type
  3939 ;;  dest            2    0[BANK0 ] PTR void 
  3940 ;;		 -> display_matrix(128), 
  3941 ;;  c               2    2[BANK0 ] int 
  3942 ;;  n               2    4[BANK0 ] unsigned int 
  3943 ;; Auto vars:     Size  Location     Type
  3944 ;;  p               2    6[BANK0 ] PTR unsigned char 
  3945 ;;		 -> display_matrix(128), 
  3946 ;; Return value:  Size  Location     Type
  3947 ;;                  2    0[BANK0 ] PTR void 
  3948 ;; Registers used:
  3949 ;;		wreg, fsr2l, fsr2h, status,2, status,0
  3950 ;; Tracked objects:
  3951 ;;		On entry : 0/0
  3952 ;;		On exit  : 0/0
  3953 ;;		Unchanged: 0/0
  3954 ;; Data sizes:     COMRAM   BANK0   BANK1   BANK2   BANK3   BANK4   BANK5
  3955 ;;      Params:         0       6       0       0       0       0       0
  3956 ;;      Locals:         0       2       0       0       0       0       0
  3957 ;;      Temps:          0       0       0       0       0       0       0
  3958 ;;      Totals:         0       8       0       0       0       0       0
  3959 ;;Total ram usage:        8 bytes
  3960 ;; Hardware stack levels used: 1
  3961 ;; Hardware stack levels required when called: 7
  3962 ;; This function calls:
  3963 ;;		Nothing
  3964 ;; This function is called by:
  3965 ;;		_generate_garbage
  3966 ;; This function uses a non-reentrant model
  3967 ;;
  3968                           
  3969                           	psect	text13
  3970   002ADA                     __ptext13:
  3971                           	callstack 0
  3972   002ADA                     _memset:
  3973                           	callstack 21
  3974   002ADA  C0E0  F0E6         	movff	memset@dest,memset@p
  3975   002ADE  C0E1  F0E7         	movff	memset@dest+1,memset@p+1
  3976   002AE2  EF7B  F015         	goto	l3998
  3977   002AE6                     l3994:
  3978                           
  3979                           ; BSR set to: 0
  3980   002AE6  C0E6  FFD9         	movff	memset@p,fsr2l
  3981   002AEA  C0E7  FFDA         	movff	memset@p+1,fsr2h
  3982   002AEE  C0E2  FFDF         	movff	memset@c,indf2
  3983   002AF2                     
  3984                           ; BSR set to: 0
  3985   002AF2  4BE6               	infsnz	memset@p& (0+255),f,b
  3986   002AF4  2BE7               	incf	(memset@p+1)& (0+255),f,b
  3987   002AF6                     l3998:
  3988   002AF6  0100               	movlb	0	; () banked
  3989   002AF8  07E4               	decf	memset@n& (0+255),f,b
  3990   002AFA  A0D8               	btfss	status,0,c
  3991   002AFC  07E5               	decf	(memset@n+1)& (0+255),f,b
  3992   002AFE  29E4               	incf	memset@n& (0+255),w,b
  3993   002B00  E106               	bnz	u4471
  3994   002B02  29E5               	incf	(memset@n+1)& (0+255),w,b
  3995   002B04  A4D8               	btfss	status,2,c
  3996   002B06  EF87  F015         	goto	u4471
  3997   002B0A  EF89  F015         	goto	u4470
  3998   002B0E                     u4471:
  3999   002B0E  EF73  F015         	goto	l3994
  4000   002B12                     u4470:
  4001   002B12                     
  4002                           ; BSR set to: 0
  4003   002B12  0012               	return		;funcret
  4004   002B14                     __end_of_memset:
  4005                           	callstack 0
  4006                           
  4007 ;; *************** function _memmove *****************
  4008 ;; Defined at:
  4009 ;;		line 5 in file "C:\Program Files\Microchip\xc8\v3.00\pic\sources\c99\common\memmove.c"
  4010 ;; Parameters:    Size  Location     Type
  4011 ;;  d1              2    0[BANK0 ] PTR void 
  4012 ;;		 -> display_matrix(128), 
  4013 ;;  s1              2    2[BANK0 ] PTR const void 
  4014 ;;		 -> display_matrix(128), 
  4015 ;;  n               2    4[BANK0 ] unsigned int 
  4016 ;; Auto vars:     Size  Location     Type
  4017 ;;  d               3    4[BANK1 ] struct .
  4018 ;;  s               3    1[BANK1 ] struct .
  4019 ;;  c               1    0[BANK1 ] unsigned char 
  4020 ;; Return value:  Size  Location     Type
  4021 ;;                  2    0[BANK0 ] PTR void 
  4022 ;; Registers used:
  4023 ;;		wreg, fsr2l, fsr2h, status,2, status,0
  4024 ;; Tracked objects:
  4025 ;;		On entry : 0/0
  4026 ;;		On exit  : 0/0
  4027 ;;		Unchanged: 0/0
  4028 ;; Data sizes:     COMRAM   BANK0   BANK1   BANK2   BANK3   BANK4   BANK5
  4029 ;;      Params:         0       6       0       0       0       0       0
  4030 ;;      Locals:         0       0       7       0       0       0       0
  4031 ;;      Temps:          0      18       0       0       0       0       0
  4032 ;;      Totals:         0      24       7       0       0       0       0
  4033 ;;Total ram usage:       31 bytes
  4034 ;; Hardware stack levels used: 1
  4035 ;; Hardware stack levels required when called: 7
  4036 ;; This function calls:
  4037 ;;		Nothing
  4038 ;; This function is called by:
  4039 ;;		_generate_garbage
  4040 ;; This function uses a non-reentrant model
  4041 ;;
  4042                           
  4043                           	psect	text14
  4044   000FE2                     __ptext14:
  4045                           	callstack 0
  4046   000FE2                     _memmove:
  4047                           	callstack 21
  4048   000FE2  0E00               	movlw	0
  4049   000FE4  0101               	movlb	1	; () banked
  4050   000FE6  6FD4               	movwf	memmove@d& (0+255),b
  4051   000FE8  0E00               	movlw	0
  4052   000FEA  6FD5               	movwf	(memmove@d+1)& (0+255),b
  4053   000FEC  0E00               	movlw	0
  4054   000FEE  6FD6               	movwf	(memmove@d+2)& (0+255),b
  4055   000FF0  0E00               	movlw	0
  4056   000FF2  6FD1               	movwf	memmove@s& (0+255),b
  4057   000FF4  0E00               	movlw	0
  4058   000FF6  6FD2               	movwf	(memmove@s+1)& (0+255),b
  4059   000FF8  0E00               	movlw	0
  4060   000FFA  6FD3               	movwf	(memmove@s+2)& (0+255),b
  4061   000FFC                     
  4062                           ; BSR set to: 1
  4063   000FFC  C0E2  F1D1         	movff	memmove@s1,memmove@s
  4064   001000  C0E3  F1D2         	movff	memmove@s1+1,memmove@s+1
  4065   001004                     
  4066                           ; BSR set to: 1
  4067   001004  C0E0  F1D4         	movff	memmove@d1,memmove@d
  4068   001008  C0E1  F1D5         	movff	memmove@d1+1,memmove@d+1
  4069   00100C                     
  4070                           ; BSR set to: 1
  4071   00100C  0EFF               	movlw	255
  4072   00100E  15D4               	andwf	memmove@d& (0+255),w,b
  4073   001010  0100               	movlb	0	; () banked
  4074   001012  6FE6               	movwf	??_memmove& (0+255),b
  4075   001014  0EFF               	movlw	255
  4076   001016  0101               	movlb	1	; () banked
  4077   001018  15D5               	andwf	(memmove@d+1)& (0+255),w,b
  4078   00101A  0100               	movlb	0	; () banked
  4079   00101C  6FE7               	movwf	(??_memmove+1)& (0+255),b
  4080   00101E  0E01               	movlw	1
  4081   001020  0101               	movlb	1	; () banked
  4082   001022  15D6               	andwf	(memmove@d+2)& (0+255),w,b
  4083   001024  0100               	movlb	0	; () banked
  4084   001026  6FE8               	movwf	(??_memmove+2)& (0+255),b
  4085   001028  0EFF               	movlw	255
  4086   00102A  0101               	movlb	1	; () banked
  4087   00102C  15D1               	andwf	memmove@s& (0+255),w,b
  4088   00102E  0100               	movlb	0	; () banked
  4089   001030  6FE9               	movwf	(??_memmove+3)& (0+255),b
  4090   001032  0EFF               	movlw	255
  4091   001034  0101               	movlb	1	; () banked
  4092   001036  15D2               	andwf	(memmove@s+1)& (0+255),w,b
  4093   001038  0100               	movlb	0	; () banked
  4094   00103A  6FEA               	movwf	(??_memmove+4)& (0+255),b
  4095   00103C  0E01               	movlw	1
  4096   00103E  0101               	movlb	1	; () banked
  4097   001040  15D3               	andwf	(memmove@s+2)& (0+255),w,b
  4098   001042  0100               	movlb	0	; () banked
  4099   001044  6FEB               	movwf	(??_memmove+5)& (0+255),b
  4100   001046  51E6               	movf	??_memmove& (0+255),w,b
  4101   001048  5DE9               	subwf	(??_memmove+3)& (0+255),w,b
  4102   00104A  51E7               	movf	(??_memmove+1)& (0+255),w,b
  4103   00104C  59EA               	subwfb	(??_memmove+4)& (0+255),w,b
  4104   00104E  51E8               	movf	(??_memmove+2)& (0+255),w,b
  4105   001050  59EB               	subwfb	(??_memmove+5)& (0+255),w,b
  4106   001052  B0D8               	btfsc	status,0,c
  4107   001054  EF2E  F008         	goto	u4421
  4108   001058  EF30  F008         	goto	u4420
  4109   00105C                     u4421:
  4110   00105C  EFA8  F008         	goto	l3980
  4111   001060                     u4420:
  4112   001060                     
  4113                           ; BSR set to: 0
  4114   001060  0EFF               	movlw	255
  4115   001062  0101               	movlb	1	; () banked
  4116   001064  15D1               	andwf	memmove@s& (0+255),w,b
  4117   001066  0100               	movlb	0	; () banked
  4118   001068  6FE6               	movwf	??_memmove& (0+255),b
  4119   00106A  0EFF               	movlw	255
  4120   00106C  0101               	movlb	1	; () banked
  4121   00106E  15D2               	andwf	(memmove@s+1)& (0+255),w,b
  4122   001070  0100               	movlb	0	; () banked
  4123   001072  6FE7               	movwf	(??_memmove+1)& (0+255),b
  4124   001074  0E01               	movlw	1
  4125   001076  0101               	movlb	1	; () banked
  4126   001078  15D3               	andwf	(memmove@s+2)& (0+255),w,b
  4127   00107A  0100               	movlb	0	; () banked
  4128   00107C  6FE8               	movwf	(??_memmove+2)& (0+255),b
  4129   00107E  51E6               	movf	??_memmove& (0+255),w,b
  4130   001080  6FE9               	movwf	(??_memmove+3)& (0+255),b
  4131   001082  51E7               	movf	(??_memmove+1)& (0+255),w,b
  4132   001084  6FEA               	movwf	(??_memmove+4)& (0+255),b
  4133   001086  51E8               	movf	(??_memmove+2)& (0+255),w,b
  4134   001088  6FEB               	movwf	(??_memmove+5)& (0+255),b
  4135   00108A  6BEC               	clrf	(??_memmove+6)& (0+255),b
  4136   00108C  51E4               	movf	memmove@n& (0+255),w,b
  4137   00108E  25E9               	addwf	(??_memmove+3)& (0+255),w,b
  4138   001090  6FED               	movwf	(??_memmove+7)& (0+255),b
  4139   001092  51E5               	movf	(memmove@n+1)& (0+255),w,b
  4140   001094  21EA               	addwfc	(??_memmove+4)& (0+255),w,b
  4141   001096  6FEE               	movwf	(??_memmove+8)& (0+255),b
  4142   001098  0E00               	movlw	0
  4143   00109A  21EB               	addwfc	(??_memmove+5)& (0+255),w,b
  4144   00109C  6FEF               	movwf	(??_memmove+9)& (0+255),b
  4145   00109E  0E00               	movlw	0
  4146   0010A0  21EC               	addwfc	(??_memmove+6)& (0+255),w,b
  4147   0010A2  6FF0               	movwf	(??_memmove+10)& (0+255),b
  4148   0010A4  0EFF               	movlw	255
  4149   0010A6  0101               	movlb	1	; () banked
  4150   0010A8  15D4               	andwf	memmove@d& (0+255),w,b
  4151   0010AA  0100               	movlb	0	; () banked
  4152   0010AC  6FF1               	movwf	(??_memmove+11)& (0+255),b
  4153   0010AE  0EFF               	movlw	255
  4154   0010B0  0101               	movlb	1	; () banked
  4155   0010B2  15D5               	andwf	(memmove@d+1)& (0+255),w,b
  4156   0010B4  0100               	movlb	0	; () banked
  4157   0010B6  6FF2               	movwf	(??_memmove+12)& (0+255),b
  4158   0010B8  0E01               	movlw	1
  4159   0010BA  0101               	movlb	1	; () banked
  4160   0010BC  15D6               	andwf	(memmove@d+2)& (0+255),w,b
  4161   0010BE  0100               	movlb	0	; () banked
  4162   0010C0  6FF3               	movwf	(??_memmove+13)& (0+255),b
  4163   0010C2  51F1               	movf	(??_memmove+11)& (0+255),w,b
  4164   0010C4  6FF4               	movwf	(??_memmove+14)& (0+255),b
  4165   0010C6  51F2               	movf	(??_memmove+12)& (0+255),w,b
  4166   0010C8  6FF5               	movwf	(??_memmove+15)& (0+255),b
  4167   0010CA  51F3               	movf	(??_memmove+13)& (0+255),w,b
  4168   0010CC  6FF6               	movwf	(??_memmove+16)& (0+255),b
  4169   0010CE  6BF7               	clrf	(??_memmove+17)& (0+255),b
  4170   0010D0  51ED               	movf	(??_memmove+7)& (0+255),w,b
  4171   0010D2  5DF4               	subwf	(??_memmove+14)& (0+255),w,b
  4172   0010D4  51EE               	movf	(??_memmove+8)& (0+255),w,b
  4173   0010D6  59F5               	subwfb	(??_memmove+15)& (0+255),w,b
  4174   0010D8  51EF               	movf	(??_memmove+9)& (0+255),w,b
  4175   0010DA  59F6               	subwfb	(??_memmove+16)& (0+255),w,b
  4176   0010DC  51F0               	movf	(??_memmove+10)& (0+255),w,b
  4177   0010DE  59F7               	subwfb	(??_memmove+17)& (0+255),w,b
  4178   0010E0  B0D8               	btfsc	status,0,c
  4179   0010E2  EF75  F008         	goto	u4431
  4180   0010E6  EF77  F008         	goto	u4430
  4181   0010EA                     u4431:
  4182   0010EA  EFA8  F008         	goto	l3980
  4183   0010EE                     u4430:
  4184   0010EE                     
  4185                           ; BSR set to: 0
  4186   0010EE  51E4               	movf	memmove@n& (0+255),w,b
  4187   0010F0  0101               	movlb	1	; () banked
  4188   0010F2  27D1               	addwf	memmove@s& (0+255),f,b
  4189   0010F4  0100               	movlb	0	; () banked
  4190   0010F6  51E5               	movf	(memmove@n+1)& (0+255),w,b
  4191   0010F8  0101               	movlb	1	; () banked
  4192   0010FA  23D2               	addwfc	(memmove@s+1)& (0+255),f,b
  4193   0010FC  0100               	movlb	0	; () banked
  4194   0010FE  51E4               	movf	memmove@n& (0+255),w,b
  4195   001100  0101               	movlb	1	; () banked
  4196   001102  27D4               	addwf	memmove@d& (0+255),f,b
  4197   001104  0100               	movlb	0	; () banked
  4198   001106  51E5               	movf	(memmove@n+1)& (0+255),w,b
  4199   001108  0101               	movlb	1	; () banked
  4200   00110A  23D5               	addwfc	(memmove@d+1)& (0+255),f,b
  4201   00110C                     l3972:
  4202   00110C  0101               	movlb	1	; () banked
  4203   00110E  07D1               	decf	memmove@s& (0+255),f,b
  4204   001110  A0D8               	btfss	status,0,c
  4205   001112  07D2               	decf	(memmove@s+1)& (0+255),f,b
  4206   001114  C1D1  FFD9         	movff	memmove@s,fsr2l
  4207   001118  C1D2  FFDA         	movff	memmove@s+1,fsr2h
  4208   00111C  50DF               	movf	indf2,w,c
  4209   00111E  6FD0               	movwf	memmove@c& (0+255),b
  4210   001120                     
  4211                           ; BSR set to: 1
  4212   001120  07D4               	decf	memmove@d& (0+255),f,b
  4213   001122  A0D8               	btfss	status,0,c
  4214   001124  07D5               	decf	(memmove@d+1)& (0+255),f,b
  4215   001126                     
  4216                           ; BSR set to: 1
  4217   001126  C1D4  FFD9         	movff	memmove@d,fsr2l
  4218   00112A  C1D5  FFDA         	movff	memmove@d+1,fsr2h
  4219   00112E  C1D0  FFDF         	movff	memmove@c,indf2
  4220   001132                     
  4221                           ; BSR set to: 1
  4222   001132  0100               	movlb	0	; () banked
  4223   001134  07E4               	decf	memmove@n& (0+255),f,b
  4224   001136  A0D8               	btfss	status,0,c
  4225   001138  07E5               	decf	(memmove@n+1)& (0+255),f,b
  4226   00113A  51E4               	movf	memmove@n& (0+255),w,b
  4227   00113C  11E5               	iorwf	(memmove@n+1)& (0+255),w,b
  4228   00113E  A4D8               	btfss	status,2,c
  4229   001140  EFA4  F008         	goto	u4441
  4230   001144  EFA6  F008         	goto	u4440
  4231   001148                     u4441:
  4232   001148  EF86  F008         	goto	l3972
  4233   00114C                     u4440:
  4234   00114C  EFCF  F008         	goto	l1028
  4235   001150                     l3980:
  4236                           
  4237                           ; BSR set to: 0
  4238   001150  51E4               	movf	memmove@n& (0+255),w,b
  4239   001152  11E5               	iorwf	(memmove@n+1)& (0+255),w,b
  4240   001154  B4D8               	btfsc	status,2,c
  4241   001156  EFAF  F008         	goto	u4451
  4242   00115A  EFB1  F008         	goto	u4450
  4243   00115E                     u4451:
  4244   00115E  EFCF  F008         	goto	l1028
  4245   001162                     u4450:
  4246   001162                     l3982:
  4247                           
  4248                           ; BSR set to: 0
  4249   001162  C1D1  FFD9         	movff	memmove@s,fsr2l
  4250   001166  C1D2  FFDA         	movff	memmove@s+1,fsr2h
  4251   00116A  50DF               	movf	indf2,w,c
  4252   00116C  0101               	movlb	1	; () banked
  4253   00116E  6FD0               	movwf	memmove@c& (0+255),b
  4254   001170                     
  4255                           ; BSR set to: 1
  4256   001170  4BD1               	infsnz	memmove@s& (0+255),f,b
  4257   001172  2BD2               	incf	(memmove@s+1)& (0+255),f,b
  4258   001174                     
  4259                           ; BSR set to: 1
  4260   001174  C1D4  FFD9         	movff	memmove@d,fsr2l
  4261   001178  C1D5  FFDA         	movff	memmove@d+1,fsr2h
  4262   00117C  C1D0  FFDF         	movff	memmove@c,indf2
  4263   001180                     
  4264                           ; BSR set to: 1
  4265   001180  4BD4               	infsnz	memmove@d& (0+255),f,b
  4266   001182  2BD5               	incf	(memmove@d+1)& (0+255),f,b
  4267   001184                     
  4268                           ; BSR set to: 1
  4269   001184  0100               	movlb	0	; () banked
  4270   001186  07E4               	decf	memmove@n& (0+255),f,b
  4271   001188  A0D8               	btfss	status,0,c
  4272   00118A  07E5               	decf	(memmove@n+1)& (0+255),f,b
  4273   00118C  51E4               	movf	memmove@n& (0+255),w,b
  4274   00118E  11E5               	iorwf	(memmove@n+1)& (0+255),w,b
  4275   001190  A4D8               	btfss	status,2,c
  4276   001192  EFCD  F008         	goto	u4461
  4277   001196  EFCF  F008         	goto	u4460
  4278   00119A                     u4461:
  4279   00119A  EFB1  F008         	goto	l3982
  4280   00119E                     u4460:
  4281   00119E                     l1028:
  4282                           
  4283                           ; BSR set to: 0
  4284   00119E  0012               	return		;funcret
  4285   0011A0                     __end_of_memmove:
  4286                           	callstack 0
  4287                           
  4288 ;; *************** function _drop_block_from_sky *****************
  4289 ;; Defined at:
  4290 ;;		line 152 in file "./helpers.h"
  4291 ;; Parameters:    Size  Location     Type
  4292 ;;		None
  4293 ;; Auto vars:     Size  Location     Type
  4294 ;;  r               2   24[BANK0 ] int 
  4295 ;; Return value:  Size  Location     Type
  4296 ;;                  1    wreg      void 
  4297 ;; Registers used:
  4298 ;;		wreg, fsr1l, fsr1h, fsr2l, fsr2h, status,2, status,0, prodl, prodh, cstack
  4299 ;; Tracked objects:
  4300 ;;		On entry : 0/0
  4301 ;;		On exit  : 0/0
  4302 ;;		Unchanged: 0/0
  4303 ;; Data sizes:     COMRAM   BANK0   BANK1   BANK2   BANK3   BANK4   BANK5
  4304 ;;      Params:         0       0       0       0       0       0       0
  4305 ;;      Locals:         0       2       0       0       0       0       0
  4306 ;;      Temps:          0       0       0       0       0       0       0
  4307 ;;      Totals:         0       2       0       0       0       0       0
  4308 ;;Total ram usage:        2 bytes
  4309 ;; Hardware stack levels used: 1
  4310 ;; Hardware stack levels required when called: 9
  4311 ;; This function calls:
  4312 ;;		___awmod
  4313 ;;		_rand
  4314 ;;		_set_current_block
  4315 ;; This function is called by:
  4316 ;;		_game_step
  4317 ;;		_generate_garbage
  4318 ;;		_main
  4319 ;; This function uses a non-reentrant model
  4320 ;;
  4321                           
  4322                           	psect	text15
  4323   001C68                     __ptext15:
  4324                           	callstack 0
  4325   001C68                     _drop_block_from_sky:
  4326                           	callstack 20
  4327   001C68                     
  4328                           ;./helpers.h: 153:     int r = rand() % 7;
  4329   001C68  ECC1  F013         	call	_rand	;wreg free
  4330   001C6C  C0EC  F0F2         	movff	?_rand,___awmod@dividend
  4331   001C70  C0ED  F0F3         	movff	?_rand+1,___awmod@dividend+1
  4332   001C74  0E00               	movlw	0
  4333   001C76  0100               	movlb	0	; () banked
  4334   001C78  6FF5               	movwf	(___awmod@divisor+1)& (0+255),b
  4335   001C7A  0E07               	movlw	7
  4336   001C7C  6FF4               	movwf	___awmod@divisor& (0+255),b
  4337   001C7E  EC20  F011         	call	___awmod	;wreg free
  4338   001C82  C0F2  F0F8         	movff	?___awmod,drop_block_from_sky@r
  4339   001C86  C0F3  F0F9         	movff	?___awmod+1,drop_block_from_sky@r+1
  4340   001C8A                     
  4341                           ;./helpers.h: 155:     if(r==0) { set_current_block(block_I); current_block_type=I; }
  4342   001C8A  0100               	movlb	0	; () banked
  4343   001C8C  51F8               	movf	drop_block_from_sky@r& (0+255),w,b
  4344   001C8E  11F9               	iorwf	(drop_block_from_sky@r+1)& (0+255),w,b
  4345   001C90  A4D8               	btfss	status,2,c
  4346   001C92  EF4D  F00E         	goto	u4361
  4347   001C96  EF4F  F00E         	goto	u4360
  4348   001C9A                     u4361:
  4349   001C9A  EF56  F00E         	goto	l3922
  4350   001C9E                     u4360:
  4351   001C9E                     
  4352                           ; BSR set to: 0
  4353   001C9E  0E61               	movlw	low _block_I
  4354   001CA0  6FE0               	movwf	set_current_block@b& (0+255),b
  4355   001CA2  EC14  F013         	call	_set_current_block	;wreg free
  4356   001CA6  6A58               	clrf	_current_block_type^0,c
  4357   001CA8  EFB5  F00E         	goto	l3956
  4358   001CAC                     l3922:
  4359                           
  4360                           ; BSR set to: 0
  4361   001CAC  05F8               	decf	drop_block_from_sky@r& (0+255),w,b
  4362   001CAE  11F9               	iorwf	(drop_block_from_sky@r+1)& (0+255),w,b
  4363   001CB0  A4D8               	btfss	status,2,c
  4364   001CB2  EF5D  F00E         	goto	u4371
  4365   001CB6  EF5F  F00E         	goto	u4370
  4366   001CBA                     u4371:
  4367   001CBA  EF67  F00E         	goto	l3928
  4368   001CBE                     u4370:
  4369   001CBE                     
  4370                           ; BSR set to: 0
  4371   001CBE  0ED0               	movlw	low _block_O
  4372   001CC0  6FE0               	movwf	set_current_block@b& (0+255),b
  4373   001CC2  EC14  F013         	call	_set_current_block	;wreg free
  4374   001CC6  0E01               	movlw	1
  4375   001CC8  6E58               	movwf	_current_block_type^0,c
  4376   001CCA  EFB5  F00E         	goto	l3956
  4377   001CCE                     l3928:
  4378                           
  4379                           ; BSR set to: 0
  4380   001CCE  0E02               	movlw	2
  4381   001CD0  19F8               	xorwf	drop_block_from_sky@r& (0+255),w,b
  4382   001CD2  11F9               	iorwf	(drop_block_from_sky@r+1)& (0+255),w,b
  4383   001CD4  A4D8               	btfss	status,2,c
  4384   001CD6  EF6F  F00E         	goto	u4381
  4385   001CDA  EF71  F00E         	goto	u4380
  4386   001CDE                     u4381:
  4387   001CDE  EF79  F00E         	goto	l3934
  4388   001CE2                     u4380:
  4389   001CE2                     
  4390                           ; BSR set to: 0
  4391   001CE2  0EC0               	movlw	low _block_T
  4392   001CE4  6FE0               	movwf	set_current_block@b& (0+255),b
  4393   001CE6  EC14  F013         	call	_set_current_block	;wreg free
  4394   001CEA  0E02               	movlw	2
  4395   001CEC  6E58               	movwf	_current_block_type^0,c
  4396   001CEE  EFB5  F00E         	goto	l3956
  4397   001CF2                     l3934:
  4398                           
  4399                           ; BSR set to: 0
  4400   001CF2  0E03               	movlw	3
  4401   001CF4  19F8               	xorwf	drop_block_from_sky@r& (0+255),w,b
  4402   001CF6  11F9               	iorwf	(drop_block_from_sky@r+1)& (0+255),w,b
  4403   001CF8  A4D8               	btfss	status,2,c
  4404   001CFA  EF81  F00E         	goto	u4391
  4405   001CFE  EF83  F00E         	goto	u4390
  4406   001D02                     u4391:
  4407   001D02  EF8B  F00E         	goto	l3940
  4408   001D06                     u4390:
  4409   001D06                     
  4410                           ; BSR set to: 0
  4411   001D06  0EB0               	movlw	low _block_S
  4412   001D08  6FE0               	movwf	set_current_block@b& (0+255),b
  4413   001D0A  EC14  F013         	call	_set_current_block	;wreg free
  4414   001D0E  0E03               	movlw	3
  4415   001D10  6E58               	movwf	_current_block_type^0,c
  4416   001D12  EFB5  F00E         	goto	l3956
  4417   001D16                     l3940:
  4418                           
  4419                           ; BSR set to: 0
  4420   001D16  0E04               	movlw	4
  4421   001D18  19F8               	xorwf	drop_block_from_sky@r& (0+255),w,b
  4422   001D1A  11F9               	iorwf	(drop_block_from_sky@r+1)& (0+255),w,b
  4423   001D1C  A4D8               	btfss	status,2,c
  4424   001D1E  EF93  F00E         	goto	u4401
  4425   001D22  EF95  F00E         	goto	u4400
  4426   001D26                     u4401:
  4427   001D26  EF9D  F00E         	goto	l3946
  4428   001D2A                     u4400:
  4429   001D2A                     
  4430                           ; BSR set to: 0
  4431   001D2A  0EA0               	movlw	low _block_Z
  4432   001D2C  6FE0               	movwf	set_current_block@b& (0+255),b
  4433   001D2E  EC14  F013         	call	_set_current_block	;wreg free
  4434   001D32  0E04               	movlw	4
  4435   001D34  6E58               	movwf	_current_block_type^0,c
  4436   001D36  EFB5  F00E         	goto	l3956
  4437   001D3A                     l3946:
  4438                           
  4439                           ; BSR set to: 0
  4440   001D3A  0E05               	movlw	5
  4441   001D3C  19F8               	xorwf	drop_block_from_sky@r& (0+255),w,b
  4442   001D3E  11F9               	iorwf	(drop_block_from_sky@r+1)& (0+255),w,b
  4443   001D40  A4D8               	btfss	status,2,c
  4444   001D42  EFA5  F00E         	goto	u4411
  4445   001D46  EFA7  F00E         	goto	u4410
  4446   001D4A                     u4411:
  4447   001D4A  EFAF  F00E         	goto	l3952
  4448   001D4E                     u4410:
  4449   001D4E                     
  4450                           ; BSR set to: 0
  4451   001D4E  0E90               	movlw	low _block_J
  4452   001D50  6FE0               	movwf	set_current_block@b& (0+255),b
  4453   001D52  EC14  F013         	call	_set_current_block	;wreg free
  4454   001D56  0E05               	movlw	5
  4455   001D58  6E58               	movwf	_current_block_type^0,c
  4456   001D5A  EFB5  F00E         	goto	l3956
  4457   001D5E                     l3952:
  4458                           
  4459                           ; BSR set to: 0
  4460   001D5E  0E80               	movlw	low _block_L
  4461   001D60  6FE0               	movwf	set_current_block@b& (0+255),b
  4462   001D62  EC14  F013         	call	_set_current_block	;wreg free
  4463   001D66  0E06               	movlw	6
  4464   001D68  6E58               	movwf	_current_block_type^0,c
  4465   001D6A                     l3956:
  4466                           
  4467                           ;./helpers.h: 162:     block_location_x = 2;
  4468   001D6A  0E00               	movlw	0
  4469   001D6C  6E53               	movwf	(_block_location_x+1)^0,c
  4470   001D6E  0E02               	movlw	2
  4471   001D70  6E52               	movwf	_block_location_x^0,c
  4472   001D72                     
  4473                           ;./helpers.h: 163:     block_location_y = 2;
  4474   001D72  0E00               	movlw	0
  4475   001D74  6E51               	movwf	(_block_location_y+1)^0,c
  4476   001D76  0E02               	movlw	2
  4477   001D78  6E50               	movwf	_block_location_y^0,c
  4478   001D7A  0012               	return		;funcret
  4479   001D7C                     __end_of_drop_block_from_sky:
  4480                           	callstack 0
  4481                           
  4482 ;; *************** function _set_current_block *****************
  4483 ;; Defined at:
  4484 ;;		line 53 in file "./helpers.h"
  4485 ;; Parameters:    Size  Location     Type
  4486 ;;  b               1    0[BANK0 ] PTR _Bool [4]
  4487 ;;		 -> block_L(16), block_J(16), block_Z(16), block_S(16), 
  4488 ;;		 -> block_T(16), block_O(16), block_I(16), 
  4489 ;; Auto vars:     Size  Location     Type
  4490 ;;  j               2    3[BANK0 ] int 
  4491 ;;  i               2    1[BANK0 ] int 
  4492 ;; Return value:  Size  Location     Type
  4493 ;;                  1    wreg      void 
  4494 ;; Registers used:
  4495 ;;		wreg, fsr1l, fsr1h, fsr2l, fsr2h, status,2, status,0, prodl, prodh
  4496 ;; Tracked objects:
  4497 ;;		On entry : 0/0
  4498 ;;		On exit  : 0/0
  4499 ;;		Unchanged: 0/0
  4500 ;; Data sizes:     COMRAM   BANK0   BANK1   BANK2   BANK3   BANK4   BANK5
  4501 ;;      Params:         0       1       0       0       0       0       0
  4502 ;;      Locals:         0       4       0       0       0       0       0
  4503 ;;      Temps:          0       0       0       0       0       0       0
  4504 ;;      Totals:         0       5       0       0       0       0       0
  4505 ;;Total ram usage:        5 bytes
  4506 ;; Hardware stack levels used: 1
  4507 ;; Hardware stack levels required when called: 7
  4508 ;; This function calls:
  4509 ;;		Nothing
  4510 ;; This function is called by:
  4511 ;;		_drop_block_from_sky
  4512 ;; This function uses a non-reentrant model
  4513 ;;
  4514                           
  4515                           	psect	text16
  4516   002628                     __ptext16:
  4517                           	callstack 0
  4518   002628                     _set_current_block:
  4519                           	callstack 21
  4520   002628                     
  4521                           ;./helpers.h: 54:     for (int i = 0; i < 4; i++) {
  4522   002628  0E00               	movlw	0
  4523   00262A  0100               	movlb	0	; () banked
  4524   00262C  6FE2               	movwf	(set_current_block@i+1)& (0+255),b
  4525   00262E  0E00               	movlw	0
  4526   002630  6FE1               	movwf	set_current_block@i& (0+255),b
  4527   002632                     l3674:
  4528                           
  4529                           ; BSR set to: 0
  4530                           ;./helpers.h: 55:         for (int j = 0; j < 4; j++) {
  4531   002632  0E00               	movlw	0
  4532   002634  6FE4               	movwf	(set_current_block@j+1)& (0+255),b
  4533   002636  0E00               	movlw	0
  4534   002638  6FE3               	movwf	set_current_block@j& (0+255),b
  4535   00263A                     l3680:
  4536                           
  4537                           ; BSR set to: 0
  4538                           ;./helpers.h: 56:             current_block[i][j] = b[i][j];
  4539   00263A  51E1               	movf	set_current_block@i& (0+255),w,b
  4540   00263C  0D04               	mullw	4
  4541   00263E  51E0               	movf	set_current_block@b& (0+255),w,b
  4542   002640  24F3               	addwf	243,w,c
  4543   002642  25E3               	addwf	set_current_block@j& (0+255),w,b
  4544   002644  6ED9               	movwf	fsr2l,c
  4545   002646  6ADA               	clrf	fsr2h,c
  4546   002648  51E1               	movf	set_current_block@i& (0+255),w,b
  4547   00264A  0D04               	mullw	4
  4548   00264C  50F3               	movf	243,w,c
  4549   00264E  0F3E               	addlw	low _current_block
  4550   002650  25E3               	addwf	set_current_block@j& (0+255),w,b
  4551   002652  6EE1               	movwf	fsr1l,c
  4552   002654  6AE2               	clrf	fsr1h,c
  4553   002656  CFDF FFE7          	movff	indf2,indf1
  4554   00265A                     
  4555                           ; BSR set to: 0
  4556                           ;./helpers.h: 57:         }
  4557   00265A  4BE3               	infsnz	set_current_block@j& (0+255),f,b
  4558   00265C  2BE4               	incf	(set_current_block@j+1)& (0+255),f,b
  4559   00265E                     
  4560                           ; BSR set to: 0
  4561   00265E  BFE4               	btfsc	(set_current_block@j+1)& (0+255),7,b
  4562   002660  EF3B  F013         	goto	u3991
  4563   002664  51E4               	movf	(set_current_block@j+1)& (0+255),w,b
  4564   002666  E109               	bnz	u3990
  4565   002668  0E04               	movlw	4
  4566   00266A  5DE3               	subwf	set_current_block@j& (0+255),w,b
  4567   00266C  A0D8               	btfss	status,0,c
  4568   00266E  EF3B  F013         	goto	u3991
  4569   002672  EF3D  F013         	goto	u3990
  4570   002676                     u3991:
  4571   002676  EF1D  F013         	goto	l3680
  4572   00267A                     u3990:
  4573   00267A                     
  4574                           ; BSR set to: 0
  4575                           ;./helpers.h: 58:     }
  4576   00267A  4BE1               	infsnz	set_current_block@i& (0+255),f,b
  4577   00267C  2BE2               	incf	(set_current_block@i+1)& (0+255),f,b
  4578   00267E                     
  4579                           ; BSR set to: 0
  4580   00267E  BFE2               	btfsc	(set_current_block@i+1)& (0+255),7,b
  4581   002680  EF4B  F013         	goto	u4001
  4582   002684  51E2               	movf	(set_current_block@i+1)& (0+255),w,b
  4583   002686  E109               	bnz	u4000
  4584   002688  0E04               	movlw	4
  4585   00268A  5DE1               	subwf	set_current_block@i& (0+255),w,b
  4586   00268C  A0D8               	btfss	status,0,c
  4587   00268E  EF4B  F013         	goto	u4001
  4588   002692  EF4D  F013         	goto	u4000
  4589   002696                     u4001:
  4590   002696  EF19  F013         	goto	l3674
  4591   00269A                     u4000:
  4592   00269A                     
  4593                           ; BSR set to: 0
  4594   00269A  0012               	return		;funcret
  4595   00269C                     __end_of_set_current_block:
  4596                           	callstack 0
  4597                           
  4598 ;; *************** function _rand *****************
  4599 ;; Defined at:
  4600 ;;		line 11 in file "C:\Program Files\Microchip\xc8\v3.00\pic\sources\c99\common\rand.c"
  4601 ;; Parameters:    Size  Location     Type
  4602 ;;		None
  4603 ;; Auto vars:     Size  Location     Type
  4604 ;;		None
  4605 ;; Return value:  Size  Location     Type
  4606 ;;                  2   12[BANK0 ] int 
  4607 ;; Registers used:
  4608 ;;		wreg, status,2, status,0, cstack
  4609 ;; Tracked objects:
  4610 ;;		On entry : 0/0
  4611 ;;		On exit  : 0/0
  4612 ;;		Unchanged: 0/0
  4613 ;; Data sizes:     COMRAM   BANK0   BANK1   BANK2   BANK3   BANK4   BANK5
  4614 ;;      Params:         0       2       0       0       0       0       0
  4615 ;;      Locals:         0       0       0       0       0       0       0
  4616 ;;      Temps:          0       4       0       0       0       0       0
  4617 ;;      Totals:         0       6       0       0       0       0       0
  4618 ;;Total ram usage:        6 bytes
  4619 ;; Hardware stack levels used: 1
  4620 ;; Hardware stack levels required when called: 8
  4621 ;; This function calls:
  4622 ;;		___lmul
  4623 ;; This function is called by:
  4624 ;;		_drop_block_from_sky
  4625 ;;		_main
  4626 ;; This function uses a non-reentrant model
  4627 ;;
  4628                           
  4629                           	psect	text17
  4630   002782                     __ptext17:
  4631                           	callstack 0
  4632   002782                     _rand:
  4633                           	callstack 22
  4634   002782  C05B  F0E0         	movff	_seed,___lmul@multiplier
  4635   002786  C05C  F0E1         	movff	_seed+1,___lmul@multiplier+1
  4636   00278A  C05D  F0E2         	movff	_seed+2,___lmul@multiplier+2
  4637   00278E  C05E  F0E3         	movff	_seed+3,___lmul@multiplier+3
  4638   002792  0E2D               	movlw	45
  4639   002794  0100               	movlb	0	; () banked
  4640   002796  6FE4               	movwf	___lmul@multiplicand& (0+255),b
  4641   002798  0E7F               	movlw	127
  4642   00279A  6FE5               	movwf	(___lmul@multiplicand+1)& (0+255),b
  4643   00279C  0E95               	movlw	149
  4644   00279E  6FE6               	movwf	(___lmul@multiplicand+2)& (0+255),b
  4645   0027A0  0E4C               	movlw	76
  4646   0027A2  6FE7               	movwf	(___lmul@multiplicand+3)& (0+255),b
  4647   0027A4  ECF9  F013         	call	___lmul	;wreg free
  4648   0027A8  0E01               	movlw	1
  4649   0027AA  0100               	movlb	0	; () banked
  4650   0027AC  25E0               	addwf	?___lmul& (0+255),w,b
  4651   0027AE  6E5B               	movwf	_seed^0,c
  4652   0027B0  0E00               	movlw	0
  4653   0027B2  21E1               	addwfc	(?___lmul+1)& (0+255),w,b
  4654   0027B4  6E5C               	movwf	(_seed+1)^0,c
  4655   0027B6  0E00               	movlw	0
  4656   0027B8  21E2               	addwfc	(?___lmul+2)& (0+255),w,b
  4657   0027BA  6E5D               	movwf	(_seed+2)^0,c
  4658   0027BC  0E00               	movlw	0
  4659   0027BE  21E3               	addwfc	(?___lmul+3)& (0+255),w,b
  4660   0027C0  6E5E               	movwf	(_seed+3)^0,c
  4661   0027C2                     
  4662                           ; BSR set to: 0
  4663   0027C2  C05B  F0EE         	movff	_seed,??_rand
  4664   0027C6  C05C  F0EF         	movff	_seed+1,??_rand+1
  4665   0027CA  C05D  F0F0         	movff	_seed+2,??_rand+2
  4666   0027CE  C05E  F0F1         	movff	_seed+3,??_rand+3
  4667   0027D2  0E12               	movlw	18
  4668   0027D4  EFF1  F013         	goto	u4010
  4669   0027D8                     u4015:
  4670   0027D8  90D8               	bcf	status,0,c
  4671   0027DA  33F1               	rrcf	(??_rand+3)& (0+255),f,b
  4672   0027DC  33F0               	rrcf	(??_rand+2)& (0+255),f,b
  4673   0027DE  33EF               	rrcf	(??_rand+1)& (0+255),f,b
  4674   0027E0  33EE               	rrcf	??_rand& (0+255),f,b
  4675   0027E2                     u4010:
  4676   0027E2  2EE8               	decfsz	wreg,f,c
  4677   0027E4  EFEC  F013         	goto	u4015
  4678   0027E8  C0EE  F0EC         	movff	??_rand,?_rand
  4679   0027EC  C0EF  F0ED         	movff	??_rand+1,?_rand+1
  4680   0027F0                     
  4681                           ; BSR set to: 0
  4682   0027F0  0012               	return		;funcret
  4683   0027F2                     __end_of_rand:
  4684                           	callstack 0
  4685                           
  4686 ;; *************** function ___lmul *****************
  4687 ;; Defined at:
  4688 ;;		line 15 in file "C:\Program Files\Microchip\xc8\v3.00\pic\sources\c99\common\Umul32.c"
  4689 ;; Parameters:    Size  Location     Type
  4690 ;;  multiplier      4    0[BANK0 ] unsigned long 
  4691 ;;  multiplicand    4    4[BANK0 ] unsigned long 
  4692 ;; Auto vars:     Size  Location     Type
  4693 ;;  product         4    8[BANK0 ] unsigned long 
  4694 ;; Return value:  Size  Location     Type
  4695 ;;                  4    0[BANK0 ] unsigned long 
  4696 ;; Registers used:
  4697 ;;		wreg, status,2, status,0
  4698 ;; Tracked objects:
  4699 ;;		On entry : 0/0
  4700 ;;		On exit  : 0/0
  4701 ;;		Unchanged: 0/0
  4702 ;; Data sizes:     COMRAM   BANK0   BANK1   BANK2   BANK3   BANK4   BANK5
  4703 ;;      Params:         0       8       0       0       0       0       0
  4704 ;;      Locals:         0       4       0       0       0       0       0
  4705 ;;      Temps:          0       0       0       0       0       0       0
  4706 ;;      Totals:         0      12       0       0       0       0       0
  4707 ;;Total ram usage:       12 bytes
  4708 ;; Hardware stack levels used: 1
  4709 ;; Hardware stack levels required when called: 7
  4710 ;; This function calls:
  4711 ;;		Nothing
  4712 ;; This function is called by:
  4713 ;;		_rand
  4714 ;; This function uses a non-reentrant model
  4715 ;;
  4716                           
  4717                           	psect	text18
  4718   0027F2                     __ptext18:
  4719                           	callstack 0
  4720   0027F2                     ___lmul:
  4721                           	callstack 22
  4722   0027F2  0E00               	movlw	0
  4723   0027F4  0100               	movlb	0	; () banked
  4724   0027F6  6FE8               	movwf	___lmul@product& (0+255),b
  4725   0027F8  0E00               	movlw	0
  4726   0027FA  6FE9               	movwf	(___lmul@product+1)& (0+255),b
  4727   0027FC  0E00               	movlw	0
  4728   0027FE  6FEA               	movwf	(___lmul@product+2)& (0+255),b
  4729   002800  0E00               	movlw	0
  4730   002802  6FEB               	movwf	(___lmul@product+3)& (0+255),b
  4731   002804                     l3638:
  4732                           
  4733                           ; BSR set to: 0
  4734   002804  A1E0               	btfss	___lmul@multiplier& (0+255),0,b
  4735   002806  EF07  F014         	goto	u3951
  4736   00280A  EF09  F014         	goto	u3950
  4737   00280E                     u3951:
  4738   00280E  EF11  F014         	goto	l3642
  4739   002812                     u3950:
  4740   002812                     
  4741                           ; BSR set to: 0
  4742   002812  51E4               	movf	___lmul@multiplicand& (0+255),w,b
  4743   002814  27E8               	addwf	___lmul@product& (0+255),f,b
  4744   002816  51E5               	movf	(___lmul@multiplicand+1)& (0+255),w,b
  4745   002818  23E9               	addwfc	(___lmul@product+1)& (0+255),f,b
  4746   00281A  51E6               	movf	(___lmul@multiplicand+2)& (0+255),w,b
  4747   00281C  23EA               	addwfc	(___lmul@product+2)& (0+255),f,b
  4748   00281E  51E7               	movf	(___lmul@multiplicand+3)& (0+255),w,b
  4749   002820  23EB               	addwfc	(___lmul@product+3)& (0+255),f,b
  4750   002822                     l3642:
  4751                           
  4752                           ; BSR set to: 0
  4753   002822  90D8               	bcf	status,0,c
  4754   002824  37E4               	rlcf	___lmul@multiplicand& (0+255),f,b
  4755   002826  37E5               	rlcf	(___lmul@multiplicand+1)& (0+255),f,b
  4756   002828  37E6               	rlcf	(___lmul@multiplicand+2)& (0+255),f,b
  4757   00282A  37E7               	rlcf	(___lmul@multiplicand+3)& (0+255),f,b
  4758   00282C                     
  4759                           ; BSR set to: 0
  4760   00282C  90D8               	bcf	status,0,c
  4761   00282E  33E3               	rrcf	(___lmul@multiplier+3)& (0+255),f,b
  4762   002830  33E2               	rrcf	(___lmul@multiplier+2)& (0+255),f,b
  4763   002832  33E1               	rrcf	(___lmul@multiplier+1)& (0+255),f,b
  4764   002834  33E0               	rrcf	___lmul@multiplier& (0+255),f,b
  4765   002836  51E0               	movf	___lmul@multiplier& (0+255),w,b
  4766   002838  11E1               	iorwf	(___lmul@multiplier+1)& (0+255),w,b
  4767   00283A  11E2               	iorwf	(___lmul@multiplier+2)& (0+255),w,b
  4768   00283C  11E3               	iorwf	(___lmul@multiplier+3)& (0+255),w,b
  4769   00283E  A4D8               	btfss	status,2,c
  4770   002840  EF24  F014         	goto	u3961
  4771   002844  EF26  F014         	goto	u3960
  4772   002848                     u3961:
  4773   002848  EF02  F014         	goto	l3638
  4774   00284C                     u3960:
  4775   00284C                     
  4776                           ; BSR set to: 0
  4777   00284C  C0E8  F0E0         	movff	___lmul@product,?___lmul
  4778   002850  C0E9  F0E1         	movff	___lmul@product+1,?___lmul+1
  4779   002854  C0EA  F0E2         	movff	___lmul@product+2,?___lmul+2
  4780   002858  C0EB  F0E3         	movff	___lmul@product+3,?___lmul+3
  4781   00285C                     
  4782                           ; BSR set to: 0
  4783   00285C  0012               	return		;funcret
  4784   00285E                     __end_of___lmul:
  4785                           	callstack 0
  4786                           
  4787 ;; *************** function _current_block_is_in_illegal_position *****************
  4788 ;; Defined at:
  4789 ;;		line 91 in file "./helpers.h"
  4790 ;; Parameters:    Size  Location     Type
  4791 ;;		None
  4792 ;; Auto vars:     Size  Location     Type
  4793 ;;  y               2    6[BANK0 ] int 
  4794 ;;  x               2    4[BANK0 ] int 
  4795 ;;  j               2   10[BANK0 ] int 
  4796 ;;  i               2    8[BANK0 ] int 
  4797 ;; Return value:  Size  Location     Type
  4798 ;;                  1    wreg      _Bool 
  4799 ;; Registers used:
  4800 ;;		wreg, fsr2l, fsr2h, status,2, status,0, prodl, prodh
  4801 ;; Tracked objects:
  4802 ;;		On entry : 0/0
  4803 ;;		On exit  : 0/0
  4804 ;;		Unchanged: 0/0
  4805 ;; Data sizes:     COMRAM   BANK0   BANK1   BANK2   BANK3   BANK4   BANK5
  4806 ;;      Params:         0       0       0       0       0       0       0
  4807 ;;      Locals:         0       8       0       0       0       0       0
  4808 ;;      Temps:          0       4       0       0       0       0       0
  4809 ;;      Totals:         0      12       0       0       0       0       0
  4810 ;;Total ram usage:       12 bytes
  4811 ;; Hardware stack levels used: 1
  4812 ;; Hardware stack levels required when called: 7
  4813 ;; This function calls:
  4814 ;;		Nothing
  4815 ;; This function is called by:
  4816 ;;		_game_step
  4817 ;;		_generate_garbage
  4818 ;;		_check_inputs
  4819 ;; This function uses a non-reentrant model
  4820 ;;
  4821                           
  4822                           	psect	text19
  4823   0017C6                     __ptext19:
  4824                           	callstack 0
  4825   0017C6                     _current_block_is_in_illegal_position:
  4826                           	callstack 22
  4827   0017C6                     
  4828                           ;./helpers.h: 92:     for (int i = 0; i < 4; i++) {
  4829   0017C6  0E00               	movlw	0
  4830   0017C8  0100               	movlb	0	; () banked
  4831   0017CA  6FE9               	movwf	(current_block_is_in_illegal_position@i+1)& (0+255),b
  4832   0017CC  0E00               	movlw	0
  4833   0017CE  6FE8               	movwf	current_block_is_in_illegal_position@i& (0+255),b
  4834   0017D0                     l3754:
  4835                           
  4836                           ; BSR set to: 0
  4837                           ;./helpers.h: 93:         for (int j = 0; j < 4; j++) {
  4838   0017D0  0E00               	movlw	0
  4839   0017D2  6FEB               	movwf	(current_block_is_in_illegal_position@j+1)& (0+255),b
  4840   0017D4  0E00               	movlw	0
  4841   0017D6  6FEA               	movwf	current_block_is_in_illegal_position@j& (0+255),b
  4842   0017D8                     l3760:
  4843                           
  4844                           ; BSR set to: 0
  4845                           ;./helpers.h: 94:             if (current_block[i][j]) {
  4846   0017D8  51E8               	movf	current_block_is_in_illegal_position@i& (0+255),w,b
  4847   0017DA  0D04               	mullw	4
  4848   0017DC  50F3               	movf	243,w,c
  4849   0017DE  0F3E               	addlw	low _current_block
  4850   0017E0  25EA               	addwf	current_block_is_in_illegal_position@j& (0+255),w,b
  4851   0017E2  6ED9               	movwf	fsr2l,c
  4852   0017E4  6ADA               	clrf	fsr2h,c
  4853   0017E6  50DF               	movf	indf2,w,c
  4854   0017E8  B4D8               	btfsc	status,2,c
  4855   0017EA  EFF9  F00B         	goto	u4101
  4856   0017EE  EFFB  F00B         	goto	u4100
  4857   0017F2                     u4101:
  4858   0017F2  EF5E  F00C         	goto	l3780
  4859   0017F6                     u4100:
  4860   0017F6                     
  4861                           ; BSR set to: 0
  4862                           ;./helpers.h: 95:                 int x = block_location_x + j;
  4863   0017F6  51EA               	movf	current_block_is_in_illegal_position@j& (0+255),w,b
  4864   0017F8  2452               	addwf	_block_location_x^0,w,c
  4865   0017FA  6FE4               	movwf	current_block_is_in_illegal_position@x& (0+255),b
  4866   0017FC  51EB               	movf	(current_block_is_in_illegal_position@j+1)& (0+255),w,b
  4867   0017FE  2053               	addwfc	(_block_location_x+1)^0,w,c
  4868   001800  6FE5               	movwf	(current_block_is_in_illegal_position@x+1)& (0+255),b
  4869                           
  4870                           ;./helpers.h: 96:                 int y = block_location_y + i;
  4871   001802  51E8               	movf	current_block_is_in_illegal_position@i& (0+255),w,b
  4872   001804  2450               	addwf	_block_location_y^0,w,c
  4873   001806  6FE6               	movwf	current_block_is_in_illegal_position@y& (0+255),b
  4874   001808  51E9               	movf	(current_block_is_in_illegal_position@i+1)& (0+255),w,b
  4875   00180A  2051               	addwfc	(_block_location_y+1)^0,w,c
  4876   00180C  6FE7               	movwf	(current_block_is_in_illegal_position@y+1)& (0+255),b
  4877                           
  4878                           ;./helpers.h: 97:                 if (x < 0 || x >= 8 || y < 2 || y >= 16) return 1;
  4879   00180E  BFE5               	btfsc	(current_block_is_in_illegal_position@x+1)& (0+255),7,b
  4880   001810  EF0C  F00C         	goto	u4111
  4881   001814  EF0E  F00C         	goto	u4110
  4882   001818                     u4111:
  4883   001818  EF38  F00C         	goto	l3770
  4884   00181C                     u4110:
  4885   00181C                     
  4886                           ; BSR set to: 0
  4887   00181C  BFE5               	btfsc	(current_block_is_in_illegal_position@x+1)& (0+255),7,b
  4888   00181E  EF1C  F00C         	goto	u4120
  4889   001822  51E5               	movf	(current_block_is_in_illegal_position@x+1)& (0+255),w,b
  4890   001824  E107               	bnz	u4121
  4891   001826  0E08               	movlw	8
  4892   001828  5DE4               	subwf	current_block_is_in_illegal_position@x& (0+255),w,b
  4893   00182A  B0D8               	btfsc	status,0,c
  4894   00182C  EF1A  F00C         	goto	u4121
  4895   001830  EF1C  F00C         	goto	u4120
  4896   001834                     u4121:
  4897   001834  EF38  F00C         	goto	l3770
  4898   001838                     u4120:
  4899   001838                     
  4900                           ; BSR set to: 0
  4901   001838  BFE7               	btfsc	(current_block_is_in_illegal_position@y+1)& (0+255),7,b
  4902   00183A  EF28  F00C         	goto	u4131
  4903   00183E  51E7               	movf	(current_block_is_in_illegal_position@y+1)& (0+255),w,b
  4904   001840  E109               	bnz	u4130
  4905   001842  0E02               	movlw	2
  4906   001844  5DE6               	subwf	current_block_is_in_illegal_position@y& (0+255),w,b
  4907   001846  A0D8               	btfss	status,0,c
  4908   001848  EF28  F00C         	goto	u4131
  4909   00184C  EF2A  F00C         	goto	u4130
  4910   001850                     u4131:
  4911   001850  EF38  F00C         	goto	l3770
  4912   001854                     u4130:
  4913   001854                     
  4914                           ; BSR set to: 0
  4915   001854  BFE7               	btfsc	(current_block_is_in_illegal_position@y+1)& (0+255),7,b
  4916   001856  EF36  F00C         	goto	u4141
  4917   00185A  51E7               	movf	(current_block_is_in_illegal_position@y+1)& (0+255),w,b
  4918   00185C  E109               	bnz	u4140
  4919   00185E  0E10               	movlw	16
  4920   001860  5DE6               	subwf	current_block_is_in_illegal_position@y& (0+255),w,b
  4921   001862  A0D8               	btfss	status,0,c
  4922   001864  EF36  F00C         	goto	u4141
  4923   001868  EF38  F00C         	goto	u4140
  4924   00186C                     u4141:
  4925   00186C  EF3B  F00C         	goto	l3774
  4926   001870                     u4140:
  4927   001870                     l3770:
  4928                           
  4929                           ; BSR set to: 0
  4930   001870  0E01               	movlw	1
  4931   001872  EF7F  F00C         	goto	l219
  4932   001876                     l3774:
  4933                           
  4934                           ; BSR set to: 0
  4935                           ;./helpers.h: 98:                 if (display_matrix[y][x]) return 1;
  4936   001876  C0E6  F0E0         	movff	current_block_is_in_illegal_position@y,??_current_block_is_in_illegal_position
  4937   00187A  C0E7  F0E1         	movff	current_block_is_in_illegal_position@y+1,??_current_block_is_in_illegal_position+
      +                          1
  4938   00187E  90D8               	bcf	status,0,c
  4939   001880  37E0               	rlcf	??_current_block_is_in_illegal_position& (0+255),f,b
  4940   001882  37E1               	rlcf	(??_current_block_is_in_illegal_position+1)& (0+255),f,b
  4941   001884  90D8               	bcf	status,0,c
  4942   001886  37E0               	rlcf	??_current_block_is_in_illegal_position& (0+255),f,b
  4943   001888  37E1               	rlcf	(??_current_block_is_in_illegal_position+1)& (0+255),f,b
  4944   00188A  90D8               	bcf	status,0,c
  4945   00188C  37E0               	rlcf	??_current_block_is_in_illegal_position& (0+255),f,b
  4946   00188E  37E1               	rlcf	(??_current_block_is_in_illegal_position+1)& (0+255),f,b
  4947   001890  0E10               	movlw	low _display_matrix
  4948   001892  25E0               	addwf	??_current_block_is_in_illegal_position& (0+255),w,b
  4949   001894  6FE2               	movwf	(??_current_block_is_in_illegal_position+2)& (0+255),b
  4950   001896  0E01               	movlw	high _display_matrix
  4951   001898  21E1               	addwfc	(??_current_block_is_in_illegal_position+1)& (0+255),w,b
  4952   00189A  6FE3               	movwf	(??_current_block_is_in_illegal_position+3)& (0+255),b
  4953   00189C  51E4               	movf	current_block_is_in_illegal_position@x& (0+255),w,b
  4954   00189E  25E2               	addwf	(??_current_block_is_in_illegal_position+2)& (0+255),w,b
  4955   0018A0  6ED9               	movwf	fsr2l,c
  4956   0018A2  51E5               	movf	(current_block_is_in_illegal_position@x+1)& (0+255),w,b
  4957   0018A4  21E3               	addwfc	(??_current_block_is_in_illegal_position+3)& (0+255),w,b
  4958   0018A6  6EDA               	movwf	fsr2h,c
  4959   0018A8  50DF               	movf	indf2,w,c
  4960   0018AA  B4D8               	btfsc	status,2,c
  4961   0018AC  EF5A  F00C         	goto	u4151
  4962   0018B0  EF5C  F00C         	goto	u4150
  4963   0018B4                     u4151:
  4964   0018B4  EF5E  F00C         	goto	l3780
  4965   0018B8                     u4150:
  4966   0018B8  EF38  F00C         	goto	l3770
  4967   0018BC                     l3780:
  4968                           
  4969                           ; BSR set to: 0
  4970                           ;./helpers.h: 100:         }
  4971   0018BC  4BEA               	infsnz	current_block_is_in_illegal_position@j& (0+255),f,b
  4972   0018BE  2BEB               	incf	(current_block_is_in_illegal_position@j+1)& (0+255),f,b
  4973   0018C0                     
  4974                           ; BSR set to: 0
  4975   0018C0  BFEB               	btfsc	(current_block_is_in_illegal_position@j+1)& (0+255),7,b
  4976   0018C2  EF6C  F00C         	goto	u4161
  4977   0018C6  51EB               	movf	(current_block_is_in_illegal_position@j+1)& (0+255),w,b
  4978   0018C8  E109               	bnz	u4160
  4979   0018CA  0E04               	movlw	4
  4980   0018CC  5DEA               	subwf	current_block_is_in_illegal_position@j& (0+255),w,b
  4981   0018CE  A0D8               	btfss	status,0,c
  4982   0018D0  EF6C  F00C         	goto	u4161
  4983   0018D4  EF6E  F00C         	goto	u4160
  4984   0018D8                     u4161:
  4985   0018D8  EFEC  F00B         	goto	l3760
  4986   0018DC                     u4160:
  4987   0018DC                     
  4988                           ; BSR set to: 0
  4989                           ;./helpers.h: 101:     }
  4990   0018DC  4BE8               	infsnz	current_block_is_in_illegal_position@i& (0+255),f,b
  4991   0018DE  2BE9               	incf	(current_block_is_in_illegal_position@i+1)& (0+255),f,b
  4992   0018E0                     
  4993                           ; BSR set to: 0
  4994   0018E0  BFE9               	btfsc	(current_block_is_in_illegal_position@i+1)& (0+255),7,b
  4995   0018E2  EF7C  F00C         	goto	u4171
  4996   0018E6  51E9               	movf	(current_block_is_in_illegal_position@i+1)& (0+255),w,b
  4997   0018E8  E109               	bnz	u4170
  4998   0018EA  0E04               	movlw	4
  4999   0018EC  5DE8               	subwf	current_block_is_in_illegal_position@i& (0+255),w,b
  5000   0018EE  A0D8               	btfss	status,0,c
  5001   0018F0  EF7C  F00C         	goto	u4171
  5002   0018F4  EF7E  F00C         	goto	u4170
  5003   0018F8                     u4171:
  5004   0018F8  EFE8  F00B         	goto	l3754
  5005   0018FC                     u4170:
  5006   0018FC                     
  5007                           ; BSR set to: 0
  5008                           ;./helpers.h: 102:     return 0;
  5009   0018FC  0E00               	movlw	0
  5010   0018FE                     l219:
  5011                           
  5012                           ; BSR set to: 0
  5013   0018FE  0012               	return		;funcret
  5014   001900                     __end_of_current_block_is_in_illegal_position:
  5015                           	callstack 0
  5016                           
  5017 ;; *************** function _check_for_full_rows *****************
  5018 ;; Defined at:
  5019 ;;		line 119 in file "./helpers.h"
  5020 ;; Parameters:    Size  Location     Type
  5021 ;;		None
  5022 ;; Auto vars:     Size  Location     Type
  5023 ;;  j               2   17[BANK1 ] int 
  5024 ;;  j               2   13[BANK1 ] int 
  5025 ;;  n               2   11[BANK1 ] int 
  5026 ;;  j               2    9[BANK1 ] int 
  5027 ;;  row_is_full     1    8[BANK1 ] _Bool 
  5028 ;;  i               2   15[BANK1 ] int 
  5029 ;; Return value:  Size  Location     Type
  5030 ;;                  1    wreg      void 
  5031 ;; Registers used:
  5032 ;;		wreg, fsr1l, fsr1h, fsr2l, fsr2h, status,2, status,0, cstack
  5033 ;; Tracked objects:
  5034 ;;		On entry : 0/0
  5035 ;;		On exit  : 0/0
  5036 ;;		Unchanged: 0/0
  5037 ;; Data sizes:     COMRAM   BANK0   BANK1   BANK2   BANK3   BANK4   BANK5
  5038 ;;      Params:         0       0       0       0       0       0       0
  5039 ;;      Locals:         0       0      11       0       0       0       0
  5040 ;;      Temps:          0       0       8       0       0       0       0
  5041 ;;      Totals:         0       0      19       0       0       0       0
  5042 ;;Total ram usage:       19 bytes
  5043 ;; Hardware stack levels used: 1
  5044 ;; Hardware stack levels required when called: 8
  5045 ;; This function calls:
  5046 ;;		___awmod
  5047 ;;		_update_score
  5048 ;; This function is called by:
  5049 ;;		_game_step
  5050 ;;		_generate_garbage
  5051 ;; This function uses a non-reentrant model
  5052 ;;
  5053                           
  5054                           	psect	text20
  5055   000830                     __ptext20:
  5056                           	callstack 0
  5057   000830                     _check_for_full_rows:
  5058                           	callstack 21
  5059   000830                     
  5060                           ;./helpers.h: 120:     for (int i = 2; i < 16; i++) {
  5061   000830  0E00               	movlw	0
  5062   000832  0101               	movlb	1	; () banked
  5063   000834  6FE0               	movwf	(check_for_full_rows@i+1)& (0+255),b
  5064   000836  0E02               	movlw	2
  5065   000838  6FDF               	movwf	check_for_full_rows@i& (0+255),b
  5066   00083A                     l3830:
  5067                           
  5068                           ; BSR set to: 1
  5069                           ;./helpers.h: 121:         _Bool row_is_full = 1;
  5070   00083A  0E01               	movlw	1
  5071   00083C  6FD8               	movwf	check_for_full_rows@row_is_full& (0+255),b
  5072                           
  5073                           ;./helpers.h: 122:         for (int j = 0; j < 8; j++) {
  5074   00083E  0E00               	movlw	0
  5075   000840  6FDA               	movwf	(check_for_full_rows@j+1)& (0+255),b
  5076   000842  0E00               	movlw	0
  5077   000844  6FD9               	movwf	check_for_full_rows@j& (0+255),b
  5078   000846                     l3836:
  5079                           
  5080                           ; BSR set to: 1
  5081                           ;./helpers.h: 123:             if (!display_matrix[i][j]) { row_is_full = 0; break; }
  5082   000846  C1DF  F1D0         	movff	check_for_full_rows@i,??_check_for_full_rows
  5083   00084A  C1E0  F1D1         	movff	check_for_full_rows@i+1,??_check_for_full_rows+1
  5084   00084E  90D8               	bcf	status,0,c
  5085   000850  37D0               	rlcf	??_check_for_full_rows& (0+255),f,b
  5086   000852  37D1               	rlcf	(??_check_for_full_rows+1)& (0+255),f,b
  5087   000854  90D8               	bcf	status,0,c
  5088   000856  37D0               	rlcf	??_check_for_full_rows& (0+255),f,b
  5089   000858  37D1               	rlcf	(??_check_for_full_rows+1)& (0+255),f,b
  5090   00085A  90D8               	bcf	status,0,c
  5091   00085C  37D0               	rlcf	??_check_for_full_rows& (0+255),f,b
  5092   00085E  37D1               	rlcf	(??_check_for_full_rows+1)& (0+255),f,b
  5093   000860  0E10               	movlw	low _display_matrix
  5094   000862  25D0               	addwf	??_check_for_full_rows& (0+255),w,b
  5095   000864  6FD2               	movwf	(??_check_for_full_rows+2)& (0+255),b
  5096   000866  0E01               	movlw	high _display_matrix
  5097   000868  21D1               	addwfc	(??_check_for_full_rows+1)& (0+255),w,b
  5098   00086A  6FD3               	movwf	(??_check_for_full_rows+3)& (0+255),b
  5099   00086C  51D9               	movf	check_for_full_rows@j& (0+255),w,b
  5100   00086E  25D2               	addwf	(??_check_for_full_rows+2)& (0+255),w,b
  5101   000870  6ED9               	movwf	fsr2l,c
  5102   000872  51DA               	movf	(check_for_full_rows@j+1)& (0+255),w,b
  5103   000874  21D3               	addwfc	(??_check_for_full_rows+3)& (0+255),w,b
  5104   000876  6EDA               	movwf	fsr2h,c
  5105   000878  50DF               	movf	indf2,w,c
  5106   00087A  A4D8               	btfss	status,2,c
  5107   00087C  EF42  F004         	goto	u4251
  5108   000880  EF44  F004         	goto	u4250
  5109   000884                     u4251:
  5110   000884  EF47  F004         	goto	l3840
  5111   000888                     u4250:
  5112   000888                     
  5113                           ; BSR set to: 1
  5114   000888  6BD8               	clrf	check_for_full_rows@row_is_full& (0+255),b
  5115   00088A  EF57  F004         	goto	l3844
  5116   00088E                     l3840:
  5117                           
  5118                           ; BSR set to: 1
  5119                           ;./helpers.h: 124:         }
  5120   00088E  4BD9               	infsnz	check_for_full_rows@j& (0+255),f,b
  5121   000890  2BDA               	incf	(check_for_full_rows@j+1)& (0+255),f,b
  5122   000892                     
  5123                           ; BSR set to: 1
  5124   000892  BFDA               	btfsc	(check_for_full_rows@j+1)& (0+255),7,b
  5125   000894  EF55  F004         	goto	u4261
  5126   000898  51DA               	movf	(check_for_full_rows@j+1)& (0+255),w,b
  5127   00089A  E109               	bnz	u4260
  5128   00089C  0E08               	movlw	8
  5129   00089E  5DD9               	subwf	check_for_full_rows@j& (0+255),w,b
  5130   0008A0  A0D8               	btfss	status,0,c
  5131   0008A2  EF55  F004         	goto	u4261
  5132   0008A6  EF57  F004         	goto	u4260
  5133   0008AA                     u4261:
  5134   0008AA  EF23  F004         	goto	l3836
  5135   0008AE                     u4260:
  5136   0008AE                     l3844:
  5137                           
  5138                           ; BSR set to: 1
  5139                           ;./helpers.h: 125:         if (row_is_full) {
  5140   0008AE  51D8               	movf	check_for_full_rows@row_is_full& (0+255),w,b
  5141   0008B0  B4D8               	btfsc	status,2,c
  5142   0008B2  EF5D  F004         	goto	u4271
  5143   0008B6  EF5F  F004         	goto	u4270
  5144   0008BA                     u4271:
  5145   0008BA  EF02  F005         	goto	l3886
  5146   0008BE                     u4270:
  5147   0008BE                     
  5148                           ; BSR set to: 1
  5149                           ;./helpers.h: 126:             int n = i;
  5150   0008BE  C1DF  F1DB         	movff	check_for_full_rows@i,check_for_full_rows@n
  5151   0008C2  C1E0  F1DC         	movff	check_for_full_rows@i+1,check_for_full_rows@n+1
  5152                           
  5153                           ;./helpers.h: 127:             while (n - 1 >= 2) {
  5154   0008C6  EFB0  F004         	goto	l3862
  5155   0008CA                     l3848:
  5156                           
  5157                           ; BSR set to: 1
  5158                           ;./helpers.h: 128:                 for (int j = 0; j < 8; j++) display_matrix[n][j] = di
      +                          splay_matrix[n - 1][j];
  5159   0008CA  0E00               	movlw	0
  5160   0008CC  6FE2               	movwf	(check_for_full_rows@j_943+1)& (0+255),b
  5161   0008CE  0E00               	movlw	0
  5162   0008D0  6FE1               	movwf	check_for_full_rows@j_943& (0+255),b
  5163   0008D2                     l3854:
  5164                           
  5165                           ; BSR set to: 1
  5166   0008D2  C1DB  F1D0         	movff	check_for_full_rows@n,??_check_for_full_rows
  5167   0008D6  C1DC  F1D1         	movff	check_for_full_rows@n+1,??_check_for_full_rows+1
  5168   0008DA  90D8               	bcf	status,0,c
  5169   0008DC  37D0               	rlcf	??_check_for_full_rows& (0+255),f,b
  5170   0008DE  37D1               	rlcf	(??_check_for_full_rows+1)& (0+255),f,b
  5171   0008E0  90D8               	bcf	status,0,c
  5172   0008E2  37D0               	rlcf	??_check_for_full_rows& (0+255),f,b
  5173   0008E4  37D1               	rlcf	(??_check_for_full_rows+1)& (0+255),f,b
  5174   0008E6  90D8               	bcf	status,0,c
  5175   0008E8  37D0               	rlcf	??_check_for_full_rows& (0+255),f,b
  5176   0008EA  37D1               	rlcf	(??_check_for_full_rows+1)& (0+255),f,b
  5177   0008EC  0E08               	movlw	low (_display_matrix+65528)
  5178   0008EE  25D0               	addwf	??_check_for_full_rows& (0+255),w,b
  5179   0008F0  6FD2               	movwf	(??_check_for_full_rows+2)& (0+255),b
  5180   0008F2  0E01               	movlw	high (_display_matrix+65528)
  5181   0008F4  21D1               	addwfc	(??_check_for_full_rows+1)& (0+255),w,b
  5182   0008F6  6FD3               	movwf	(??_check_for_full_rows+3)& (0+255),b
  5183   0008F8  51E1               	movf	check_for_full_rows@j_943& (0+255),w,b
  5184   0008FA  25D2               	addwf	(??_check_for_full_rows+2)& (0+255),w,b
  5185   0008FC  6ED9               	movwf	fsr2l,c
  5186   0008FE  51E2               	movf	(check_for_full_rows@j_943+1)& (0+255),w,b
  5187   000900  21D3               	addwfc	(??_check_for_full_rows+3)& (0+255),w,b
  5188   000902  6EDA               	movwf	fsr2h,c
  5189   000904  C1DB  F1D4         	movff	check_for_full_rows@n,??_check_for_full_rows+4
  5190   000908  C1DC  F1D5         	movff	check_for_full_rows@n+1,??_check_for_full_rows+5
  5191   00090C  90D8               	bcf	status,0,c
  5192   00090E  37D4               	rlcf	(??_check_for_full_rows+4)& (0+255),f,b
  5193   000910  37D5               	rlcf	(??_check_for_full_rows+5)& (0+255),f,b
  5194   000912  90D8               	bcf	status,0,c
  5195   000914  37D4               	rlcf	(??_check_for_full_rows+4)& (0+255),f,b
  5196   000916  37D5               	rlcf	(??_check_for_full_rows+5)& (0+255),f,b
  5197   000918  90D8               	bcf	status,0,c
  5198   00091A  37D4               	rlcf	(??_check_for_full_rows+4)& (0+255),f,b
  5199   00091C  37D5               	rlcf	(??_check_for_full_rows+5)& (0+255),f,b
  5200   00091E  0E10               	movlw	low _display_matrix
  5201   000920  25D4               	addwf	(??_check_for_full_rows+4)& (0+255),w,b
  5202   000922  6FD6               	movwf	(??_check_for_full_rows+6)& (0+255),b
  5203   000924  0E01               	movlw	high _display_matrix
  5204   000926  21D5               	addwfc	(??_check_for_full_rows+5)& (0+255),w,b
  5205   000928  6FD7               	movwf	(??_check_for_full_rows+7)& (0+255),b
  5206   00092A  51E1               	movf	check_for_full_rows@j_943& (0+255),w,b
  5207   00092C  25D6               	addwf	(??_check_for_full_rows+6)& (0+255),w,b
  5208   00092E  6EE1               	movwf	fsr1l,c
  5209   000930  51E2               	movf	(check_for_full_rows@j_943+1)& (0+255),w,b
  5210   000932  21D7               	addwfc	(??_check_for_full_rows+7)& (0+255),w,b
  5211   000934  6EE2               	movwf	fsr1h,c
  5212   000936  CFDF FFE7          	movff	indf2,indf1
  5213   00093A                     
  5214                           ; BSR set to: 1
  5215   00093A  4BE1               	infsnz	check_for_full_rows@j_943& (0+255),f,b
  5216   00093C  2BE2               	incf	(check_for_full_rows@j_943+1)& (0+255),f,b
  5217   00093E                     
  5218                           ; BSR set to: 1
  5219   00093E  BFE2               	btfsc	(check_for_full_rows@j_943+1)& (0+255),7,b
  5220   000940  EFAB  F004         	goto	u4281
  5221   000944  51E2               	movf	(check_for_full_rows@j_943+1)& (0+255),w,b
  5222   000946  E109               	bnz	u4280
  5223   000948  0E08               	movlw	8
  5224   00094A  5DE1               	subwf	check_for_full_rows@j_943& (0+255),w,b
  5225   00094C  A0D8               	btfss	status,0,c
  5226   00094E  EFAB  F004         	goto	u4281
  5227   000952  EFAD  F004         	goto	u4280
  5228   000956                     u4281:
  5229   000956  EF69  F004         	goto	l3854
  5230   00095A                     u4280:
  5231   00095A                     
  5232                           ; BSR set to: 1
  5233                           ;./helpers.h: 129:                 n--;
  5234   00095A  07DB               	decf	check_for_full_rows@n& (0+255),f,b
  5235   00095C  A0D8               	btfss	status,0,c
  5236   00095E  07DC               	decf	(check_for_full_rows@n+1)& (0+255),f,b
  5237   000960                     l3862:
  5238                           
  5239                           ; BSR set to: 1
  5240                           ;./helpers.h: 127:             while (n - 1 >= 2) {
  5241   000960  0EFF               	movlw	255
  5242   000962  25DB               	addwf	check_for_full_rows@n& (0+255),w,b
  5243   000964  6FD0               	movwf	??_check_for_full_rows& (0+255),b
  5244   000966  0EFF               	movlw	255
  5245   000968  21DC               	addwfc	(check_for_full_rows@n+1)& (0+255),w,b
  5246   00096A  6FD1               	movwf	(??_check_for_full_rows+1)& (0+255),b
  5247   00096C  BFD1               	btfsc	(??_check_for_full_rows+1)& (0+255),7,b
  5248   00096E  EFC4  F004         	goto	u4290
  5249   000972  51D1               	movf	(??_check_for_full_rows+1)& (0+255),w,b
  5250   000974  E107               	bnz	u4291
  5251   000976  0E02               	movlw	2
  5252   000978  5DD0               	subwf	??_check_for_full_rows& (0+255),w,b
  5253   00097A  B0D8               	btfsc	status,0,c
  5254   00097C  EFC2  F004         	goto	u4291
  5255   000980  EFC4  F004         	goto	u4290
  5256   000984                     u4291:
  5257   000984  EF65  F004         	goto	l3848
  5258   000988                     u4290:
  5259   000988                     
  5260                           ; BSR set to: 1
  5261                           ;./helpers.h: 131:             for (int j = 0; j < 8; j++) display_matrix[2][j] = 0;
  5262   000988  0E00               	movlw	0
  5263   00098A  6FDE               	movwf	(check_for_full_rows@j_944+1)& (0+255),b
  5264   00098C  0E00               	movlw	0
  5265   00098E  6FDD               	movwf	check_for_full_rows@j_944& (0+255),b
  5266   000990                     l3870:
  5267                           
  5268                           ; BSR set to: 1
  5269   000990  0E20               	movlw	low (_display_matrix+16)
  5270   000992  25DD               	addwf	check_for_full_rows@j_944& (0+255),w,b
  5271   000994  6ED9               	movwf	fsr2l,c
  5272   000996  0E01               	movlw	high (_display_matrix+16)
  5273   000998  21DE               	addwfc	(check_for_full_rows@j_944+1)& (0+255),w,b
  5274   00099A  6EDA               	movwf	fsr2h,c
  5275   00099C  6ADF               	clrf	indf2,c
  5276   00099E                     
  5277                           ; BSR set to: 1
  5278   00099E  4BDD               	infsnz	check_for_full_rows@j_944& (0+255),f,b
  5279   0009A0  2BDE               	incf	(check_for_full_rows@j_944+1)& (0+255),f,b
  5280   0009A2                     
  5281                           ; BSR set to: 1
  5282   0009A2  BFDE               	btfsc	(check_for_full_rows@j_944+1)& (0+255),7,b
  5283   0009A4  EFDD  F004         	goto	u4301
  5284   0009A8  51DE               	movf	(check_for_full_rows@j_944+1)& (0+255),w,b
  5285   0009AA  E109               	bnz	u4300
  5286   0009AC  0E08               	movlw	8
  5287   0009AE  5DDD               	subwf	check_for_full_rows@j_944& (0+255),w,b
  5288   0009B0  A0D8               	btfss	status,0,c
  5289   0009B2  EFDD  F004         	goto	u4301
  5290   0009B6  EFDF  F004         	goto	u4300
  5291   0009BA                     u4301:
  5292   0009BA  EFC8  F004         	goto	l3870
  5293   0009BE                     u4300:
  5294   0009BE                     
  5295                           ; BSR set to: 1
  5296                           ;./helpers.h: 132:             score++;
  5297   0009BE  4A4E               	infsnz	_score^0,f,c
  5298   0009C0  2A4F               	incf	(_score+1)^0,f,c
  5299   0009C2                     
  5300                           ; BSR set to: 1
  5301                           ;./helpers.h: 133:             update_score();
  5302   0009C2  EC9D  F012         	call	_update_score	;wreg free
  5303   0009C6                     
  5304                           ;./helpers.h: 135:             if (score % 12 == 0 && game_speed_ticks > 4) game_speed_t
      +                          icks -= 2;
  5305   0009C6  C04E  F0F2         	movff	_score,___awmod@dividend
  5306   0009CA  C04F  F0F3         	movff	_score+1,___awmod@dividend+1
  5307   0009CE  0E00               	movlw	0
  5308   0009D0  0100               	movlb	0	; () banked
  5309   0009D2  6FF5               	movwf	(___awmod@divisor+1)& (0+255),b
  5310   0009D4  0E0C               	movlw	12
  5311   0009D6  6FF4               	movwf	___awmod@divisor& (0+255),b
  5312   0009D8  EC20  F011         	call	___awmod	;wreg free
  5313   0009DC  0100               	movlb	0	; () banked
  5314   0009DE  51F2               	movf	?___awmod& (0+255),w,b
  5315   0009E0  11F3               	iorwf	(?___awmod+1)& (0+255),w,b
  5316   0009E2  A4D8               	btfss	status,2,c
  5317   0009E4  EFF6  F004         	goto	u4311
  5318   0009E8  EFF8  F004         	goto	u4310
  5319   0009EC                     u4311:
  5320   0009EC  EF02  F005         	goto	l3886
  5321   0009F0                     u4310:
  5322   0009F0                     
  5323                           ; BSR set to: 0
  5324   0009F0  0E04               	movlw	4
  5325   0009F2  6460               	cpfsgt	_game_speed_ticks^0,c
  5326   0009F4  EFFE  F004         	goto	u4321
  5327   0009F8  EF00  F005         	goto	u4320
  5328   0009FC                     u4321:
  5329   0009FC  EF02  F005         	goto	l3886
  5330   000A00                     u4320:
  5331   000A00                     
  5332                           ; BSR set to: 0
  5333   000A00  0E02               	movlw	2
  5334   000A02  5E60               	subwf	_game_speed_ticks^0,f,c
  5335   000A04                     l3886:
  5336                           
  5337                           ;./helpers.h: 137:     }
  5338   000A04  0101               	movlb	1	; () banked
  5339   000A06  4BDF               	infsnz	check_for_full_rows@i& (0+255),f,b
  5340   000A08  2BE0               	incf	(check_for_full_rows@i+1)& (0+255),f,b
  5341   000A0A                     
  5342                           ; BSR set to: 1
  5343   000A0A  BFE0               	btfsc	(check_for_full_rows@i+1)& (0+255),7,b
  5344   000A0C  EF11  F005         	goto	u4331
  5345   000A10  51E0               	movf	(check_for_full_rows@i+1)& (0+255),w,b
  5346   000A12  E109               	bnz	u4330
  5347   000A14  0E10               	movlw	16
  5348   000A16  5DDF               	subwf	check_for_full_rows@i& (0+255),w,b
  5349   000A18  A0D8               	btfss	status,0,c
  5350   000A1A  EF11  F005         	goto	u4331
  5351   000A1E  EF13  F005         	goto	u4330
  5352   000A22                     u4331:
  5353   000A22  EF1D  F004         	goto	l3830
  5354   000A26                     u4330:
  5355   000A26                     
  5356                           ; BSR set to: 1
  5357   000A26  0012               	return		;funcret
  5358   000A28                     __end_of_check_for_full_rows:
  5359                           	callstack 0
  5360                           
  5361 ;; *************** function _update_score *****************
  5362 ;; Defined at:
  5363 ;;		line 43 in file "./helpers.h"
  5364 ;; Parameters:    Size  Location     Type
  5365 ;;		None
  5366 ;; Auto vars:     Size  Location     Type
  5367 ;;  i               2    4[BANK0 ] unsigned int 
  5368 ;;  n               2    2[BANK0 ] int 
  5369 ;;  x               2    0[BANK0 ] int 
  5370 ;; Return value:  Size  Location     Type
  5371 ;;                  1    wreg      void 
  5372 ;; Registers used:
  5373 ;;		wreg, fsr2l, fsr2h, status,2, status,0
  5374 ;; Tracked objects:
  5375 ;;		On entry : 0/0
  5376 ;;		On exit  : 0/0
  5377 ;;		Unchanged: 0/0
  5378 ;; Data sizes:     COMRAM   BANK0   BANK1   BANK2   BANK3   BANK4   BANK5
  5379 ;;      Params:         0       0       0       0       0       0       0
  5380 ;;      Locals:         0       6       0       0       0       0       0
  5381 ;;      Temps:          0       0       0       0       0       0       0
  5382 ;;      Totals:         0       6       0       0       0       0       0
  5383 ;;Total ram usage:        6 bytes
  5384 ;; Hardware stack levels used: 1
  5385 ;; Hardware stack levels required when called: 7
  5386 ;; This function calls:
  5387 ;;		Nothing
  5388 ;; This function is called by:
  5389 ;;		_check_for_full_rows
  5390 ;;		_reset_game
  5391 ;; This function uses a non-reentrant model
  5392 ;;
  5393                           
  5394                           	psect	text21
  5395   00253A                     __ptext21:
  5396                           	callstack 0
  5397   00253A                     _update_score:
  5398                           	callstack 22
  5399   00253A                     
  5400                           ;./helpers.h: 44:     int x = score;
  5401   00253A  C04E  F0E0         	movff	_score,update_score@x
  5402   00253E  C04F  F0E1         	movff	_score+1,update_score@x+1
  5403   002542                     
  5404                           ;./helpers.h: 45:     int n = 0;
  5405   002542  0E00               	movlw	0
  5406   002544  0100               	movlb	0	; () banked
  5407   002546  6FE3               	movwf	(update_score@n+1)& (0+255),b
  5408   002548  0E00               	movlw	0
  5409   00254A  6FE2               	movwf	update_score@n& (0+255),b
  5410                           
  5411                           ;./helpers.h: 46:     for (unsigned i = 1 << 7; i > 0; i >>= 1) {
  5412   00254C  0E00               	movlw	0
  5413   00254E  6FE5               	movwf	(update_score@i+1)& (0+255),b
  5414   002550  0E80               	movlw	128
  5415   002552  6FE4               	movwf	update_score@i& (0+255),b
  5416   002554                     l3654:
  5417                           
  5418                           ; BSR set to: 0
  5419                           ;./helpers.h: 47:         if (x >= i) { x -= i; display_matrix[0][n] = 1; }
  5420   002554  51E4               	movf	update_score@i& (0+255),w,b
  5421   002556  5DE0               	subwf	update_score@x& (0+255),w,b
  5422   002558  51E5               	movf	(update_score@i+1)& (0+255),w,b
  5423   00255A  59E1               	subwfb	(update_score@x+1)& (0+255),w,b
  5424   00255C  A0D8               	btfss	status,0,c
  5425   00255E  EFB3  F012         	goto	u3971
  5426   002562  EFB5  F012         	goto	u3970
  5427   002566                     u3971:
  5428   002566  EFC3  F012         	goto	l3660
  5429   00256A                     u3970:
  5430   00256A                     
  5431                           ; BSR set to: 0
  5432   00256A  51E4               	movf	update_score@i& (0+255),w,b
  5433   00256C  5FE0               	subwf	update_score@x& (0+255),f,b
  5434   00256E  51E5               	movf	(update_score@i+1)& (0+255),w,b
  5435   002570  5BE1               	subwfb	(update_score@x+1)& (0+255),f,b
  5436   002572                     
  5437                           ; BSR set to: 0
  5438   002572  0E10               	movlw	low _display_matrix
  5439   002574  25E2               	addwf	update_score@n& (0+255),w,b
  5440   002576  6ED9               	movwf	fsr2l,c
  5441   002578  0E01               	movlw	high _display_matrix
  5442   00257A  21E3               	addwfc	(update_score@n+1)& (0+255),w,b
  5443   00257C  6EDA               	movwf	fsr2h,c
  5444   00257E  0E01               	movlw	1
  5445   002580  6EDF               	movwf	indf2,c
  5446   002582  EFCA  F012         	goto	l3662
  5447   002586                     l3660:
  5448                           
  5449                           ; BSR set to: 0
  5450   002586  0E10               	movlw	low _display_matrix
  5451   002588  25E2               	addwf	update_score@n& (0+255),w,b
  5452   00258A  6ED9               	movwf	fsr2l,c
  5453   00258C  0E01               	movlw	high _display_matrix
  5454   00258E  21E3               	addwfc	(update_score@n+1)& (0+255),w,b
  5455   002590  6EDA               	movwf	fsr2h,c
  5456   002592  6ADF               	clrf	indf2,c
  5457   002594                     l3662:
  5458                           
  5459                           ; BSR set to: 0
  5460                           ;./helpers.h: 49:         n++;
  5461   002594  4BE2               	infsnz	update_score@n& (0+255),f,b
  5462   002596  2BE3               	incf	(update_score@n+1)& (0+255),f,b
  5463   002598                     
  5464                           ; BSR set to: 0
  5465                           ;./helpers.h: 50:     }
  5466   002598  90D8               	bcf	status,0,c
  5467   00259A  33E5               	rrcf	(update_score@i+1)& (0+255),f,b
  5468   00259C  33E4               	rrcf	update_score@i& (0+255),f,b
  5469   00259E                     
  5470                           ; BSR set to: 0
  5471   00259E  51E4               	movf	update_score@i& (0+255),w,b
  5472   0025A0  11E5               	iorwf	(update_score@i+1)& (0+255),w,b
  5473   0025A2  A4D8               	btfss	status,2,c
  5474   0025A4  EFD6  F012         	goto	u3981
  5475   0025A8  EFD8  F012         	goto	u3980
  5476   0025AC                     u3981:
  5477   0025AC  EFAA  F012         	goto	l3654
  5478   0025B0                     u3980:
  5479   0025B0                     
  5480                           ; BSR set to: 0
  5481   0025B0  0012               	return		;funcret
  5482   0025B2                     __end_of_update_score:
  5483                           	callstack 0
  5484                           
  5485 ;; *************** function ___awmod *****************
  5486 ;; Defined at:
  5487 ;;		line 7 in file "C:\Program Files\Microchip\xc8\v3.00\pic\sources\c99\common\awmod.c"
  5488 ;; Parameters:    Size  Location     Type
  5489 ;;  dividend        2   18[BANK0 ] int 
  5490 ;;  divisor         2   20[BANK0 ] int 
  5491 ;; Auto vars:     Size  Location     Type
  5492 ;;  sign            1   23[BANK0 ] unsigned char 
  5493 ;;  counter         1   22[BANK0 ] unsigned char 
  5494 ;; Return value:  Size  Location     Type
  5495 ;;                  2   18[BANK0 ] int 
  5496 ;; Registers used:
  5497 ;;		wreg, status,2, status,0
  5498 ;; Tracked objects:
  5499 ;;		On entry : 0/0
  5500 ;;		On exit  : 0/0
  5501 ;;		Unchanged: 0/0
  5502 ;; Data sizes:     COMRAM   BANK0   BANK1   BANK2   BANK3   BANK4   BANK5
  5503 ;;      Params:         0       4       0       0       0       0       0
  5504 ;;      Locals:         0       2       0       0       0       0       0
  5505 ;;      Temps:          0       0       0       0       0       0       0
  5506 ;;      Totals:         0       6       0       0       0       0       0
  5507 ;;Total ram usage:        6 bytes
  5508 ;; Hardware stack levels used: 1
  5509 ;; Hardware stack levels required when called: 7
  5510 ;; This function calls:
  5511 ;;		Nothing
  5512 ;; This function is called by:
  5513 ;;		_check_for_full_rows
  5514 ;;		_drop_block_from_sky
  5515 ;;		_main
  5516 ;; This function uses a non-reentrant model
  5517 ;;
  5518                           
  5519                           	psect	text22
  5520   002240                     __ptext22:
  5521                           	callstack 0
  5522   002240                     ___awmod:
  5523                           	callstack 21
  5524   002240  0100               	movlb	0	; () banked
  5525   002242  6BF7               	clrf	___awmod@sign& (0+255),b
  5526   002244                     
  5527                           ; BSR set to: 0
  5528   002244  BFF3               	btfsc	(___awmod@dividend+1)& (0+255),7,b
  5529   002246  EF29  F011         	goto	u4020
  5530   00224A  EF27  F011         	goto	u4021
  5531   00224E                     u4021:
  5532   00224E  EF2F  F011         	goto	l3704
  5533   002252                     u4020:
  5534   002252                     
  5535                           ; BSR set to: 0
  5536   002252  6DF2               	negf	___awmod@dividend& (0+255),b
  5537   002254  1FF3               	comf	(___awmod@dividend+1)& (0+255),f,b
  5538   002256  B0D8               	btfsc	status,0,c
  5539   002258  2BF3               	incf	(___awmod@dividend+1)& (0+255),f,b
  5540   00225A                     
  5541                           ; BSR set to: 0
  5542   00225A  0E01               	movlw	1
  5543   00225C  6FF7               	movwf	___awmod@sign& (0+255),b
  5544   00225E                     l3704:
  5545                           
  5546                           ; BSR set to: 0
  5547   00225E  BFF5               	btfsc	(___awmod@divisor+1)& (0+255),7,b
  5548   002260  EF36  F011         	goto	u4030
  5549   002264  EF34  F011         	goto	u4031
  5550   002268                     u4031:
  5551   002268  EF3A  F011         	goto	l3708
  5552   00226C                     u4030:
  5553   00226C                     
  5554                           ; BSR set to: 0
  5555   00226C  6DF4               	negf	___awmod@divisor& (0+255),b
  5556   00226E  1FF5               	comf	(___awmod@divisor+1)& (0+255),f,b
  5557   002270  B0D8               	btfsc	status,0,c
  5558   002272  2BF5               	incf	(___awmod@divisor+1)& (0+255),f,b
  5559   002274                     l3708:
  5560                           
  5561                           ; BSR set to: 0
  5562   002274  51F4               	movf	___awmod@divisor& (0+255),w,b
  5563   002276  11F5               	iorwf	(___awmod@divisor+1)& (0+255),w,b
  5564   002278  B4D8               	btfsc	status,2,c
  5565   00227A  EF41  F011         	goto	u4041
  5566   00227E  EF43  F011         	goto	u4040
  5567   002282                     u4041:
  5568   002282  EF67  F011         	goto	l3724
  5569   002286                     u4040:
  5570   002286                     
  5571                           ; BSR set to: 0
  5572   002286  0E01               	movlw	1
  5573   002288  6FF6               	movwf	___awmod@counter& (0+255),b
  5574   00228A  EF4B  F011         	goto	l3714
  5575   00228E                     l3712:
  5576                           
  5577                           ; BSR set to: 0
  5578   00228E  90D8               	bcf	status,0,c
  5579   002290  37F4               	rlcf	___awmod@divisor& (0+255),f,b
  5580   002292  37F5               	rlcf	(___awmod@divisor+1)& (0+255),f,b
  5581   002294  2BF6               	incf	___awmod@counter& (0+255),f,b
  5582   002296                     l3714:
  5583                           
  5584                           ; BSR set to: 0
  5585   002296  AFF5               	btfss	(___awmod@divisor+1)& (0+255),7,b
  5586   002298  EF50  F011         	goto	u4051
  5587   00229C  EF52  F011         	goto	u4050
  5588   0022A0                     u4051:
  5589   0022A0  EF47  F011         	goto	l3712
  5590   0022A4                     u4050:
  5591   0022A4                     l3716:
  5592                           
  5593                           ; BSR set to: 0
  5594   0022A4  51F4               	movf	___awmod@divisor& (0+255),w,b
  5595   0022A6  5DF2               	subwf	___awmod@dividend& (0+255),w,b
  5596   0022A8  51F5               	movf	(___awmod@divisor+1)& (0+255),w,b
  5597   0022AA  59F3               	subwfb	(___awmod@dividend+1)& (0+255),w,b
  5598   0022AC  A0D8               	btfss	status,0,c
  5599   0022AE  EF5B  F011         	goto	u4061
  5600   0022B2  EF5D  F011         	goto	u4060
  5601   0022B6                     u4061:
  5602   0022B6  EF61  F011         	goto	l3720
  5603   0022BA                     u4060:
  5604   0022BA                     
  5605                           ; BSR set to: 0
  5606   0022BA  51F4               	movf	___awmod@divisor& (0+255),w,b
  5607   0022BC  5FF2               	subwf	___awmod@dividend& (0+255),f,b
  5608   0022BE  51F5               	movf	(___awmod@divisor+1)& (0+255),w,b
  5609   0022C0  5BF3               	subwfb	(___awmod@dividend+1)& (0+255),f,b
  5610   0022C2                     l3720:
  5611                           
  5612                           ; BSR set to: 0
  5613   0022C2  90D8               	bcf	status,0,c
  5614   0022C4  33F5               	rrcf	(___awmod@divisor+1)& (0+255),f,b
  5615   0022C6  33F4               	rrcf	___awmod@divisor& (0+255),f,b
  5616   0022C8                     
  5617                           ; BSR set to: 0
  5618   0022C8  2FF6               	decfsz	___awmod@counter& (0+255),f,b
  5619   0022CA  EF52  F011         	goto	l3716
  5620   0022CE                     l3724:
  5621                           
  5622                           ; BSR set to: 0
  5623   0022CE  51F7               	movf	___awmod@sign& (0+255),w,b
  5624   0022D0  B4D8               	btfsc	status,2,c
  5625   0022D2  EF6D  F011         	goto	u4071
  5626   0022D6  EF6F  F011         	goto	u4070
  5627   0022DA                     u4071:
  5628   0022DA  EF73  F011         	goto	l3728
  5629   0022DE                     u4070:
  5630   0022DE                     
  5631                           ; BSR set to: 0
  5632   0022DE  6DF2               	negf	___awmod@dividend& (0+255),b
  5633   0022E0  1FF3               	comf	(___awmod@dividend+1)& (0+255),f,b
  5634   0022E2  B0D8               	btfsc	status,0,c
  5635   0022E4  2BF3               	incf	(___awmod@dividend+1)& (0+255),f,b
  5636   0022E6                     l3728:
  5637                           
  5638                           ; BSR set to: 0
  5639   0022E6  C0F2  F0F2         	movff	___awmod@dividend,?___awmod
  5640   0022EA  C0F3  F0F3         	movff	___awmod@dividend+1,?___awmod+1
  5641   0022EE                     
  5642                           ; BSR set to: 0
  5643   0022EE  0012               	return		;funcret
  5644   0022F0                     __end_of___awmod:
  5645                           	callstack 0
  5646                           
  5647 ;; *************** function _MCU_Init *****************
  5648 ;; Defined at:
  5649 ;;		line 35 in file "./display.h"
  5650 ;; Parameters:    Size  Location     Type
  5651 ;;		None
  5652 ;; Auto vars:     Size  Location     Type
  5653 ;;		None
  5654 ;; Return value:  Size  Location     Type
  5655 ;;                  1    wreg      void 
  5656 ;; Registers used:
  5657 ;;		wreg, status,2
  5658 ;; Tracked objects:
  5659 ;;		On entry : 0/0
  5660 ;;		On exit  : 0/0
  5661 ;;		Unchanged: 0/0
  5662 ;; Data sizes:     COMRAM   BANK0   BANK1   BANK2   BANK3   BANK4   BANK5
  5663 ;;      Params:         0       0       0       0       0       0       0
  5664 ;;      Locals:         0       0       0       0       0       0       0
  5665 ;;      Temps:          0       0       0       0       0       0       0
  5666 ;;      Totals:         0       0       0       0       0       0       0
  5667 ;;Total ram usage:        0 bytes
  5668 ;; Hardware stack levels used: 1
  5669 ;; Hardware stack levels required when called: 7
  5670 ;; This function calls:
  5671 ;;		Nothing
  5672 ;; This function is called by:
  5673 ;;		_main
  5674 ;; This function uses a non-reentrant model
  5675 ;;
  5676                           
  5677                           	psect	text23
  5678   002B94                     __ptext23:
  5679                           	callstack 0
  5680   002B94                     _MCU_Init:
  5681                           	callstack 23
  5682   002B94                     
  5683                           ;./display.h: 36:     OSCCON = 0x72;
  5684   002B94  0E72               	movlw	114
  5685   002B96  6ED3               	movwf	211,c	;volatile
  5686                           
  5687                           ;./display.h: 37:     ADCON1 = 0x0F;
  5688   002B98  0E0F               	movlw	15
  5689   002B9A  6EC1               	movwf	193,c	;volatile
  5690   002B9C                     
  5691                           ;./display.h: 39:     LATDbits.LATD0 = 1;
  5692   002B9C  808C               	bsf	140,0,c	;volatile
  5693   002B9E                     
  5694                           ;./display.h: 40:     LATCbits.LATC5 = 0;
  5695   002B9E  9A8B               	bcf	139,5,c	;volatile
  5696   002BA0                     
  5697                           ;./display.h: 41:     LATCbits.LATC3 = 0;
  5698   002BA0  968B               	bcf	139,3,c	;volatile
  5699   002BA2                     
  5700                           ;./display.h: 43:     TRISDbits.TRISD0 = 0;
  5701   002BA2  9095               	bcf	149,0,c	;volatile
  5702   002BA4                     
  5703                           ;./display.h: 44:     TRISCbits.TRISC5 = 0;
  5704   002BA4  9A94               	bcf	148,5,c	;volatile
  5705   002BA6                     
  5706                           ;./display.h: 45:     TRISCbits.TRISC3 = 0;
  5707   002BA6  9694               	bcf	148,3,c	;volatile
  5708   002BA8  0012               	return		;funcret
  5709   002BAA                     __end_of_MCU_Init:
  5710                           	callstack 0
  5711                           
  5712 ;; *************** function _MAX7219_Init *****************
  5713 ;; Defined at:
  5714 ;;		line 80 in file "./display.h"
  5715 ;; Parameters:    Size  Location     Type
  5716 ;;		None
  5717 ;; Auto vars:     Size  Location     Type
  5718 ;;  i               2    9[BANK0 ] int 
  5719 ;; Return value:  Size  Location     Type
  5720 ;;                  1    wreg      void 
  5721 ;; Registers used:
  5722 ;;		wreg, status,2, status,0, cstack
  5723 ;; Tracked objects:
  5724 ;;		On entry : 0/0
  5725 ;;		On exit  : 0/0
  5726 ;;		Unchanged: 0/0
  5727 ;; Data sizes:     COMRAM   BANK0   BANK1   BANK2   BANK3   BANK4   BANK5
  5728 ;;      Params:         0       0       0       0       0       0       0
  5729 ;;      Locals:         0       2       0       0       0       0       0
  5730 ;;      Temps:          0       0       0       0       0       0       0
  5731 ;;      Totals:         0       2       0       0       0       0       0
  5732 ;;Total ram usage:        2 bytes
  5733 ;; Hardware stack levels used: 1
  5734 ;; Hardware stack levels required when called: 9
  5735 ;; This function calls:
  5736 ;;		_MAX7219_Write_All
  5737 ;; This function is called by:
  5738 ;;		_main
  5739 ;; This function uses a non-reentrant model
  5740 ;;
  5741                           
  5742                           	psect	text24
  5743   00269C                     __ptext24:
  5744                           	callstack 0
  5745   00269C                     _MAX7219_Init:
  5746                           	callstack 21
  5747   00269C                     
  5748                           ;./display.h: 82:     MAX7219_Write_All(0x0F, 0x00);
  5749   00269C  0E00               	movlw	0
  5750   00269E  0100               	movlb	0	; () banked
  5751   0026A0  6FE5               	movwf	MAX7219_Write_All@data& (0+255),b
  5752   0026A2  0E0F               	movlw	15
  5753   0026A4  EC49  F015         	call	_MAX7219_Write_All
  5754                           
  5755                           ;./display.h: 83:     MAX7219_Write_All(0x0B, 0x07);
  5756   0026A8  0E07               	movlw	7
  5757   0026AA  0100               	movlb	0	; () banked
  5758   0026AC  6FE5               	movwf	MAX7219_Write_All@data& (0+255),b
  5759   0026AE  0E0B               	movlw	11
  5760   0026B0  EC49  F015         	call	_MAX7219_Write_All
  5761                           
  5762                           ;./display.h: 84:     MAX7219_Write_All(0x09, 0x00);
  5763   0026B4  0E00               	movlw	0
  5764   0026B6  0100               	movlb	0	; () banked
  5765   0026B8  6FE5               	movwf	MAX7219_Write_All@data& (0+255),b
  5766   0026BA  0E09               	movlw	9
  5767   0026BC  EC49  F015         	call	_MAX7219_Write_All
  5768                           
  5769                           ;./display.h: 85:     MAX7219_Write_All(0x0A, 0x02);
  5770   0026C0  0E02               	movlw	2
  5771   0026C2  0100               	movlb	0	; () banked
  5772   0026C4  6FE5               	movwf	MAX7219_Write_All@data& (0+255),b
  5773   0026C6  0E0A               	movlw	10
  5774   0026C8  EC49  F015         	call	_MAX7219_Write_All
  5775                           
  5776                           ;./display.h: 86:     MAX7219_Write_All(0x0C, 0x01);
  5777   0026CC  0E01               	movlw	1
  5778   0026CE  0100               	movlb	0	; () banked
  5779   0026D0  6FE5               	movwf	MAX7219_Write_All@data& (0+255),b
  5780   0026D2  0E0C               	movlw	12
  5781   0026D4  EC49  F015         	call	_MAX7219_Write_All
  5782   0026D8                     
  5783                           ;./display.h: 90:     for (int i = 1; i <= 8; i++) {
  5784   0026D8  0E00               	movlw	0
  5785   0026DA  0100               	movlb	0	; () banked
  5786   0026DC  6FEA               	movwf	(MAX7219_Init@i+1)& (0+255),b
  5787   0026DE  0E01               	movlw	1
  5788   0026E0  6FE9               	movwf	MAX7219_Init@i& (0+255),b
  5789   0026E2                     l4276:
  5790                           
  5791                           ; BSR set to: 0
  5792                           ;./display.h: 91:         MAX7219_Write_All(i, 0x00);
  5793   0026E2  0E00               	movlw	0
  5794   0026E4  6FE5               	movwf	MAX7219_Write_All@data& (0+255),b
  5795   0026E6  51E9               	movf	MAX7219_Init@i& (0+255),w,b
  5796   0026E8  EC49  F015         	call	_MAX7219_Write_All
  5797   0026EC                     
  5798                           ;./display.h: 92:     }
  5799   0026EC  0100               	movlb	0	; () banked
  5800   0026EE  4BE9               	infsnz	MAX7219_Init@i& (0+255),f,b
  5801   0026F0  2BEA               	incf	(MAX7219_Init@i+1)& (0+255),f,b
  5802   0026F2                     
  5803                           ; BSR set to: 0
  5804   0026F2  BFEA               	btfsc	(MAX7219_Init@i+1)& (0+255),7,b
  5805   0026F4  EF85  F013         	goto	u4901
  5806   0026F8  51EA               	movf	(MAX7219_Init@i+1)& (0+255),w,b
  5807   0026FA  E109               	bnz	u4900
  5808   0026FC  0E09               	movlw	9
  5809   0026FE  5DE9               	subwf	MAX7219_Init@i& (0+255),w,b
  5810   002700  A0D8               	btfss	status,0,c
  5811   002702  EF85  F013         	goto	u4901
  5812   002706  EF87  F013         	goto	u4900
  5813   00270A                     u4901:
  5814   00270A  EF71  F013         	goto	l4276
  5815   00270E                     u4900:
  5816   00270E                     
  5817                           ; BSR set to: 0
  5818   00270E  0012               	return		;funcret
  5819   002710                     __end_of_MAX7219_Init:
  5820                           	callstack 0
  5821                           
  5822 ;; *************** function _MAX7219_Write_All *****************
  5823 ;; Defined at:
  5824 ;;		line 67 in file "./display.h"
  5825 ;; Parameters:    Size  Location     Type
  5826 ;;  reg             1    wreg     unsigned char 
  5827 ;;  data            1    5[BANK0 ] unsigned char 
  5828 ;; Auto vars:     Size  Location     Type
  5829 ;;  reg             1    6[BANK0 ] unsigned char 
  5830 ;;  i               2    7[BANK0 ] int 
  5831 ;; Return value:  Size  Location     Type
  5832 ;;                  1    wreg      void 
  5833 ;; Registers used:
  5834 ;;		wreg, status,2, status,0, cstack
  5835 ;; Tracked objects:
  5836 ;;		On entry : 0/0
  5837 ;;		On exit  : 0/0
  5838 ;;		Unchanged: 0/0
  5839 ;; Data sizes:     COMRAM   BANK0   BANK1   BANK2   BANK3   BANK4   BANK5
  5840 ;;      Params:         0       1       0       0       0       0       0
  5841 ;;      Locals:         0       3       0       0       0       0       0
  5842 ;;      Temps:          0       0       0       0       0       0       0
  5843 ;;      Totals:         0       4       0       0       0       0       0
  5844 ;;Total ram usage:        4 bytes
  5845 ;; Hardware stack levels used: 1
  5846 ;; Hardware stack levels required when called: 8
  5847 ;; This function calls:
  5848 ;;		_SPI_Write_Byte
  5849 ;; This function is called by:
  5850 ;;		_MAX7219_Init
  5851 ;;		_main
  5852 ;; This function uses a non-reentrant model
  5853 ;;
  5854                           
  5855                           	psect	text25
  5856   002A92                     __ptext25:
  5857                           	callstack 0
  5858   002A92                     _MAX7219_Write_All:
  5859                           	callstack 22
  5860                           
  5861                           ; BSR set to: 0
  5862                           ;incstack = 0
  5863                           ;MAX7219_Write_All@reg stored from wreg
  5864   002A92  0100               	movlb	0	; () banked
  5865   002A94  6FE6               	movwf	MAX7219_Write_All@reg& (0+255),b
  5866   002A96                     
  5867                           ;./display.h: 68:     LATDbits.LATD0 = 0;
  5868   002A96  908C               	bcf	140,0,c	;volatile
  5869   002A98                     
  5870                           ;./display.h: 70:     for(int i = 0; i < 2; i++) {
  5871   002A98  0E00               	movlw	0
  5872   002A9A  0100               	movlb	0	; () banked
  5873   002A9C  6FE8               	movwf	(MAX7219_Write_All@i+1)& (0+255),b
  5874   002A9E  0E00               	movlw	0
  5875   002AA0  6FE7               	movwf	MAX7219_Write_All@i& (0+255),b
  5876   002AA2                     l4008:
  5877                           
  5878                           ; BSR set to: 0
  5879                           ;./display.h: 71:         SPI_Write_Byte(reg);
  5880   002AA2  51E6               	movf	MAX7219_Write_All@reg& (0+255),w,b
  5881   002AA4  ECCA  F014         	call	_SPI_Write_Byte
  5882                           
  5883                           ;./display.h: 72:         SPI_Write_Byte(data);
  5884   002AA8  0100               	movlb	0	; () banked
  5885   002AAA  51E5               	movf	MAX7219_Write_All@data& (0+255),w,b
  5886   002AAC  ECCA  F014         	call	_SPI_Write_Byte
  5887   002AB0                     
  5888                           ;./display.h: 73:     }
  5889   002AB0  0100               	movlb	0	; () banked
  5890   002AB2  4BE7               	infsnz	MAX7219_Write_All@i& (0+255),f,b
  5891   002AB4  2BE8               	incf	(MAX7219_Write_All@i+1)& (0+255),f,b
  5892   002AB6                     
  5893                           ; BSR set to: 0
  5894   002AB6  BFE8               	btfsc	(MAX7219_Write_All@i+1)& (0+255),7,b
  5895   002AB8  EF67  F015         	goto	u4481
  5896   002ABC  51E8               	movf	(MAX7219_Write_All@i+1)& (0+255),w,b
  5897   002ABE  E109               	bnz	u4480
  5898   002AC0  0E02               	movlw	2
  5899   002AC2  5DE7               	subwf	MAX7219_Write_All@i& (0+255),w,b
  5900   002AC4  A0D8               	btfss	status,0,c
  5901   002AC6  EF67  F015         	goto	u4481
  5902   002ACA  EF69  F015         	goto	u4480
  5903   002ACE                     u4481:
  5904   002ACE  EF51  F015         	goto	l4008
  5905   002AD2                     u4480:
  5906   002AD2                     
  5907                           ; BSR set to: 0
  5908                           ;./display.h: 75:     LATDbits.LATD0 = 1;
  5909   002AD2  808C               	bsf	140,0,c	;volatile
  5910   002AD4  0000               	nop		;# 
  5911   002AD6  0000               	nop		;# 
  5912   002AD8  0012               	return		;funcret
  5913   002ADA                     __end_of_MAX7219_Write_All:
  5914                           	callstack 0
  5915                           
  5916 ;; *************** function _SPI_Write_Byte *****************
  5917 ;; Defined at:
  5918 ;;		line 49 in file "./display.h"
  5919 ;; Parameters:    Size  Location     Type
  5920 ;;  data            1    wreg     unsigned char 
  5921 ;; Auto vars:     Size  Location     Type
  5922 ;;  data            1    2[BANK0 ] unsigned char 
  5923 ;;  i               2    3[BANK0 ] int 
  5924 ;; Return value:  Size  Location     Type
  5925 ;;                  1    wreg      void 
  5926 ;; Registers used:
  5927 ;;		wreg, status,2, status,0
  5928 ;; Tracked objects:
  5929 ;;		On entry : 0/0
  5930 ;;		On exit  : 0/0
  5931 ;;		Unchanged: 0/0
  5932 ;; Data sizes:     COMRAM   BANK0   BANK1   BANK2   BANK3   BANK4   BANK5
  5933 ;;      Params:         0       0       0       0       0       0       0
  5934 ;;      Locals:         0       3       0       0       0       0       0
  5935 ;;      Temps:          0       2       0       0       0       0       0
  5936 ;;      Totals:         0       5       0       0       0       0       0
  5937 ;;Total ram usage:        5 bytes
  5938 ;; Hardware stack levels used: 1
  5939 ;; Hardware stack levels required when called: 7
  5940 ;; This function calls:
  5941 ;;		Nothing
  5942 ;; This function is called by:
  5943 ;;		_MAX7219_Write_All
  5944 ;;		_update_display
  5945 ;; This function uses a non-reentrant model
  5946 ;;
  5947                           
  5948                           	psect	text26
  5949   002994                     __ptext26:
  5950                           	callstack 0
  5951   002994                     _SPI_Write_Byte:
  5952                           	callstack 22
  5953                           
  5954                           ;incstack = 0
  5955                           ;SPI_Write_Byte@data stored from wreg
  5956   002994  0100               	movlb	0	; () banked
  5957   002996  6FE2               	movwf	SPI_Write_Byte@data& (0+255),b
  5958   002998                     
  5959                           ;./display.h: 50:     for(int i = 7; i >= 0; i--) {
  5960   002998  0E00               	movlw	0
  5961   00299A  0100               	movlb	0	; () banked
  5962   00299C  6FE4               	movwf	(SPI_Write_Byte@i+1)& (0+255),b
  5963   00299E  0E07               	movlw	7
  5964   0029A0  6FE3               	movwf	SPI_Write_Byte@i& (0+255),b
  5965   0029A2                     l122:
  5966                           
  5967                           ; BSR set to: 0
  5968                           ;./display.h: 51:         LATCbits.LATC3 = 0;
  5969   0029A2  968B               	bcf	139,3,c	;volatile
  5970   0029A4                     
  5971                           ; BSR set to: 0
  5972                           ;./display.h: 54:         LATCbits.LATC5 = (data >> i) & 1;
  5973   0029A4  C0E3  F0E0         	movff	SPI_Write_Byte@i,??_SPI_Write_Byte
  5974   0029A8  C0E2  F0E1         	movff	SPI_Write_Byte@data,??_SPI_Write_Byte+1
  5975   0029AC  2BE0               	incf	??_SPI_Write_Byte& (0+255),f,b
  5976   0029AE  EFDB  F014         	goto	u4084
  5977   0029B2                     u4085:
  5978   0029B2  90D8               	bcf	status,0,c
  5979   0029B4  33E1               	rrcf	(??_SPI_Write_Byte+1)& (0+255),f,b
  5980   0029B6                     u4084:
  5981   0029B6  2FE0               	decfsz	??_SPI_Write_Byte& (0+255),f,b
  5982   0029B8  EFD9  F014         	goto	u4085
  5983   0029BC  0E01               	movlw	1
  5984   0029BE  0100               	movlb	0	; () banked
  5985   0029C0  17E1               	andwf	(??_SPI_Write_Byte+1)& (0+255),f,b
  5986   0029C2  3BE1               	swapf	(??_SPI_Write_Byte+1)& (0+255),f,b
  5987   0029C4  47E1               	rlncf	(??_SPI_Write_Byte+1)& (0+255),f,b
  5988   0029C6  508B               	movf	139,w,c	;volatile
  5989   0029C8  19E1               	xorwf	(??_SPI_Write_Byte+1)& (0+255),w,b
  5990   0029CA  0BDF               	andlw	-33
  5991   0029CC  19E1               	xorwf	(??_SPI_Write_Byte+1)& (0+255),w,b
  5992   0029CE  6E8B               	movwf	139,c	;volatile
  5993   0029D0                     
  5994                           ; BSR set to: 0
  5995                           ;./display.h: 57:         LATCbits.LATC3 = 1;
  5996   0029D0  868B               	bsf	139,3,c	;volatile
  5997   0029D2  0000               	nop		;# 
  5998   0029D4  0000               	nop		;# 
  5999   0029D6                     
  6000                           ;./display.h: 60:         LATCbits.LATC3 = 0;
  6001   0029D6  968B               	bcf	139,3,c	;volatile
  6002   0029D8                     
  6003                           ;./display.h: 61:     }
  6004   0029D8  0100               	movlb	0	; () banked
  6005   0029DA  07E3               	decf	SPI_Write_Byte@i& (0+255),f,b
  6006   0029DC  A0D8               	btfss	status,0,c
  6007   0029DE  07E4               	decf	(SPI_Write_Byte@i+1)& (0+255),f,b
  6008   0029E0                     
  6009                           ; BSR set to: 0
  6010   0029E0  BFE4               	btfsc	(SPI_Write_Byte@i+1)& (0+255),7,b
  6011   0029E2  EFF7  F014         	goto	u4090
  6012   0029E6  EFF5  F014         	goto	u4091
  6013   0029EA                     u4091:
  6014   0029EA  EFD1  F014         	goto	l122
  6015   0029EE                     u4090:
  6016   0029EE                     
  6017                           ; BSR set to: 0
  6018   0029EE  0012               	return		;funcret
  6019   0029F0                     __end_of_SPI_Write_Byte:
  6020                           	callstack 0
  6021                           
  6022 ;; *************** function _Lo_ISR *****************
  6023 ;; Defined at:
  6024 ;;		line 89 in file "tetris.c"
  6025 ;; Parameters:    Size  Location     Type
  6026 ;;		None
  6027 ;; Auto vars:     Size  Location     Type
  6028 ;;		None
  6029 ;; Return value:  Size  Location     Type
  6030 ;;                  1    wreg      void 
  6031 ;; Registers used:
  6032 ;;		wreg, fsr1l, fsr1h, fsr2l, fsr2h, status,2, status,0, pcl, pclath, pclatu, tosl, prodl, prodh, cstack
  6033 ;; Tracked objects:
  6034 ;;		On entry : 0/0
  6035 ;;		On exit  : 0/0
  6036 ;;		Unchanged: 0/0
  6037 ;; Data sizes:     COMRAM   BANK0   BANK1   BANK2   BANK3   BANK4   BANK5
  6038 ;;      Params:         0       0       0       0       0       0       0
  6039 ;;      Locals:         0       0       0       0       0       0       0
  6040 ;;      Temps:         11       0       0       0       0       0       0
  6041 ;;      Totals:        11       0       0       0       0       0       0
  6042 ;;Total ram usage:       11 bytes
  6043 ;; Hardware stack levels used: 1
  6044 ;; Hardware stack levels required when called: 6
  6045 ;; This function calls:
  6046 ;;		_processSerialReceive
  6047 ;; This function is called by:
  6048 ;;		Interrupt level 1
  6049 ;; This function uses a non-reentrant model
  6050 ;;
  6051                           
  6052                           	psect	intcodelo
  6053   000018                     __pintcodelo:
  6054                           	callstack 0
  6055   000018                     _Lo_ISR:
  6056                           	callstack 19
  6057                           
  6058                           ; BSR set to: 0
  6059                           ;incstack = 0
  6060   000018  8071               	bsf	int$flags,0,c	;set compiler interrupt flag (level 1)
  6061   00001A  CFD8 F033          	movff	status,??_Lo_ISR
  6062   00001E  CFE8 F034          	movff	wreg,??_Lo_ISR+1
  6063   000022  CFE0 F035          	movff	bsr,??_Lo_ISR+2
  6064   000026  CFFA F036          	movff	pclath,??_Lo_ISR+3
  6065   00002A  CFFB F037          	movff	pclatu,??_Lo_ISR+4
  6066   00002E  CFE1 F038          	movff	fsr1l,??_Lo_ISR+5
  6067   000032  CFE2 F039          	movff	fsr1h,??_Lo_ISR+6
  6068   000036  CFD9 F03A          	movff	fsr2l,??_Lo_ISR+7
  6069   00003A  CFDA F03B          	movff	fsr2h,??_Lo_ISR+8
  6070   00003E  CFF3 F03C          	movff	prodl,??_Lo_ISR+9
  6071   000042  CFF4 F03D          	movff	prodh,??_Lo_ISR+10
  6072   000046                     
  6073                           ;tetris.c: 90:     if (processSerialReceive()) {
  6074   000046  ECA5  F009         	call	_processSerialReceive	;wreg free
  6075   00004A  C03D  FFF4         	movff	??_Lo_ISR+10,prodh
  6076   00004E  C03C  FFF3         	movff	??_Lo_ISR+9,prodl
  6077   000052  C03B  FFDA         	movff	??_Lo_ISR+8,fsr2h
  6078   000056  C03A  FFD9         	movff	??_Lo_ISR+7,fsr2l
  6079   00005A  C039  FFE2         	movff	??_Lo_ISR+6,fsr1h
  6080   00005E  C038  FFE1         	movff	??_Lo_ISR+5,fsr1l
  6081   000062  C037  FFFB         	movff	??_Lo_ISR+4,pclatu
  6082   000066  C036  FFFA         	movff	??_Lo_ISR+3,pclath
  6083   00006A  C035  FFE0         	movff	??_Lo_ISR+2,bsr
  6084   00006E  C034  FFE8         	movff	??_Lo_ISR+1,wreg
  6085   000072  C033  FFD8         	movff	??_Lo_ISR,status
  6086   000076  9071               	bcf	int$flags,0,c	;clear compiler interrupt flag (level 1)
  6087   000078  0010               	retfie	
  6088   00007A                     __end_of_Lo_ISR:
  6089                           	callstack 0
  6090                           
  6091 ;; *************** function _processSerialReceive *****************
  6092 ;; Defined at:
  6093 ;;		line 1108 in file "./lib.h"
  6094 ;; Parameters:    Size  Location     Type
  6095 ;;		None
  6096 ;; Auto vars:     Size  Location     Type
  6097 ;;  c               1   49[COMRAM] unsigned char 
  6098 ;; Return value:  Size  Location     Type
  6099 ;;                  1    wreg      _Bool 
  6100 ;; Registers used:
  6101 ;;		wreg, fsr1l, fsr1h, fsr2l, fsr2h, status,2, status,0, pcl, pclath, pclatu, tosl, prodl, prodh, cstack
  6102 ;; Tracked objects:
  6103 ;;		On entry : 0/0
  6104 ;;		On exit  : 0/0
  6105 ;;		Unchanged: 0/0
  6106 ;; Data sizes:     COMRAM   BANK0   BANK1   BANK2   BANK3   BANK4   BANK5
  6107 ;;      Params:         0       0       0       0       0       0       0
  6108 ;;      Locals:         1       0       0       0       0       0       0
  6109 ;;      Temps:          0       0       0       0       0       0       0
  6110 ;;      Totals:         1       0       0       0       0       0       0
  6111 ;;Total ram usage:        1 bytes
  6112 ;; Hardware stack levels used: 1
  6113 ;; Hardware stack levels required when called: 5
  6114 ;; This function calls:
  6115 ;;		NULL
  6116 ;;		_onReadChar
  6117 ;;		_onReadLine
  6118 ;;		_serialRead
  6119 ;;		_serialWrite
  6120 ;; This function is called by:
  6121 ;;		_Lo_ISR
  6122 ;; This function uses a non-reentrant model
  6123 ;;
  6124                           
  6125                           	psect	text28
  6126   00134A                     __ptext28:
  6127                           	callstack 0
  6128   00134A                     _processSerialReceive:
  6129                           	callstack 19
  6130   00134A                     
  6131                           ;./lib.h: 1109:     if (PIR1bits.RCIF) {
  6132   00134A  AA9E               	btfss	158,5,c	;volatile
  6133   00134C  EFAA  F009         	goto	i1u478_21
  6134   001350  EFAC  F009         	goto	i1u478_20
  6135   001354                     i1u478_21:
  6136   001354  EF73  F00A         	goto	i1l4250
  6137   001358                     i1u478_20:
  6138   001358                     
  6139                           ;./lib.h: 1111:         if (RCSTAbits.OERR) {
  6140   001358  A2AB               	btfss	171,1,c	;volatile
  6141   00135A  EFB1  F009         	goto	i1u479_21
  6142   00135E  EFB3  F009         	goto	i1u479_20
  6143   001362                     i1u479_21:
  6144   001362  EFB6  F009         	goto	i1l4200
  6145   001366                     i1u479_20:
  6146   001366                     
  6147                           ;./lib.h: 1112:             RCSTAbits.CREN = 0;
  6148   001366  98AB               	bcf	171,4,c	;volatile
  6149                           
  6150                           ;./lib.h: 1113:             __nop();
  6151   001368  0000               	nop	
  6152                           
  6153                           ;./lib.h: 1114:             RCSTAbits.CREN = 1;
  6154   00136A  88AB               	bsf	171,4,c	;volatile
  6155   00136C                     i1l4200:
  6156                           
  6157                           ;./lib.h: 1116:         char c = serialRead();
  6158   00136C  ECE9  F015         	call	_serialRead	;wreg free
  6159   001370  6E32               	movwf	processSerialReceive@c^0,c
  6160   001372                     
  6161                           ;./lib.h: 1118:         if (!RCSTAbits.FERR) {
  6162   001372  B4AB               	btfsc	171,2,c	;volatile
  6163   001374  EFBE  F009         	goto	i1u480_21
  6164   001378  EFC0  F009         	goto	i1u480_20
  6165   00137C                     i1u480_21:
  6166   00137C  EF70  F00A         	goto	i1l4246
  6167   001380                     i1u480_20:
  6168   001380  EF5B  F00A         	goto	i1l4244
  6169   001384                     i1l4206:
  6170                           
  6171                           ;./lib.h: 1121:                 if (!serialBufferLen)
  6172   001384  505A               	movf	_serialBufferLen^0,w,c
  6173   001386  A4D8               	btfss	status,2,c
  6174   001388  EFC8  F009         	goto	i1u481_21
  6175   00138C  EFCA  F009         	goto	i1u481_20
  6176   001390                     i1u481_21:
  6177   001390  EFCC  F009         	goto	i1l4210
  6178   001394                     i1u481_20:
  6179   001394  EF6E  F00A         	goto	i1l105
  6180   001398                     i1l4210:
  6181                           
  6182                           ;./lib.h: 1124:                 serialWrite('\b');
  6183   001398  0E08               	movlw	8
  6184   00139A  ECD5  F015         	call	_serialWrite
  6185                           
  6186                           ;./lib.h: 1125:                 serialWrite(' ');
  6187   00139E  0E20               	movlw	32
  6188   0013A0  ECD5  F015         	call	_serialWrite
  6189                           
  6190                           ;./lib.h: 1126:                 serialWrite('\b');
  6191   0013A4  0E08               	movlw	8
  6192   0013A6  ECD5  F015         	call	_serialWrite
  6193   0013AA                     
  6194                           ;./lib.h: 1127:                 serialBuffer[--serialBufferLen] = '\0';
  6195   0013AA  065A               	decf	_serialBufferLen^0,f,c
  6196   0013AC  0E90               	movlw	low _serialBuffer
  6197   0013AE  245A               	addwf	_serialBufferLen^0,w,c
  6198   0013B0  6ED9               	movwf	fsr2l,c
  6199   0013B2  6ADA               	clrf	fsr2h,c
  6200   0013B4  0E01               	movlw	high _serialBuffer
  6201   0013B6  22DA               	addwfc	fsr2h,f,c
  6202   0013B8  6ADF               	clrf	indf2,c
  6203                           
  6204                           ;./lib.h: 1128:                 break;
  6205   0013BA  EF6E  F00A         	goto	i1l105
  6206   0013BE                     i1l4214:
  6207                           
  6208                           ;./lib.h: 1132:                 if (c == '\n' && !serialBufferLen && serialLastChar == '
      +                          \r')
  6209   0013BE  0E0A               	movlw	10
  6210   0013C0  1832               	xorwf	processSerialReceive@c^0,w,c
  6211   0013C2  A4D8               	btfss	status,2,c
  6212   0013C4  EFE6  F009         	goto	i1u482_21
  6213   0013C8  EFE8  F009         	goto	i1u482_20
  6214   0013CC                     i1u482_21:
  6215   0013CC  EFFB  F009         	goto	i1l4222
  6216   0013D0                     i1u482_20:
  6217   0013D0  505A               	movf	_serialBufferLen^0,w,c
  6218   0013D2  A4D8               	btfss	status,2,c
  6219   0013D4  EFEE  F009         	goto	i1u483_21
  6220   0013D8  EFF0  F009         	goto	i1u483_20
  6221   0013DC                     i1u483_21:
  6222   0013DC  EFFB  F009         	goto	i1l4222
  6223   0013E0                     i1u483_20:
  6224   0013E0  0E0D               	movlw	13
  6225   0013E2  1859               	xorwf	_serialLastChar^0,w,c
  6226   0013E4  A4D8               	btfss	status,2,c
  6227   0013E6  EFF7  F009         	goto	i1u484_21
  6228   0013EA  EFF9  F009         	goto	i1u484_20
  6229   0013EE                     i1u484_21:
  6230   0013EE  EFFB  F009         	goto	i1l4222
  6231   0013F2                     i1u484_20:
  6232   0013F2  EF6E  F00A         	goto	i1l105
  6233   0013F6                     i1l4222:
  6234                           
  6235                           ;./lib.h: 1134:                 serialWrite('\n');
  6236   0013F6  0E0A               	movlw	10
  6237   0013F8  ECD5  F015         	call	_serialWrite
  6238   0013FC                     
  6239                           ;./lib.h: 1135:                 serialBuffer[serialBufferLen] = '\0';
  6240   0013FC  0E90               	movlw	low _serialBuffer
  6241   0013FE  245A               	addwf	_serialBufferLen^0,w,c
  6242   001400  6ED9               	movwf	fsr2l,c
  6243   001402  6ADA               	clrf	fsr2h,c
  6244   001404  0E01               	movlw	high _serialBuffer
  6245   001406  22DA               	addwfc	fsr2h,f,c
  6246   001408  6ADF               	clrf	indf2,c
  6247   00140A                     
  6248                           ;./lib.h: 1137:                 if (serialOnReadLine)
  6249   00140A  0100               	movlb	0	; () banked
  6250   00140C  51FE               	movf	_serialOnReadLine& (0+255),w,b
  6251   00140E  11FF               	iorwf	(_serialOnReadLine+1)& (0+255),w,b
  6252   001410  B4D8               	btfsc	status,2,c
  6253   001412  EF0D  F00A         	goto	i1u485_21
  6254   001416  EF0F  F00A         	goto	i1u485_20
  6255   00141A                     i1u485_21:
  6256   00141A  EF22  F00A         	goto	i1l4230
  6257   00141E                     i1u485_20:
  6258   00141E                     
  6259                           ; BSR set to: 0
  6260                           ;./lib.h: 1138:                     serialOnReadLine(serialBuffer, serialBufferLen);
  6261   00141E  0E90               	movlw	low _serialBuffer
  6262   001420  6E2E               	movwf	onReadLine@line^0,c
  6263   001422  0E01               	movlw	high _serialBuffer
  6264   001424  6E2F               	movwf	(onReadLine@line+1)^0,c
  6265   001426  C05A  F030         	movff	_serialBufferLen,onReadLine@len
  6266   00142A  D802               	call	i1u486_28
  6267   00142C  EF22  F00A         	goto	i1u486_29
  6268   001430                     i1u486_28:
  6269   001430  0005               	push	
  6270   001432  6EFA               	movwf	pclath,c
  6271   001434  51FE               	movf	_serialOnReadLine& (0+255),w,b
  6272   001436  6EFD               	movwf	tosl,c
  6273   001438  51FF               	movf	(_serialOnReadLine+1)& (0+255),w,b
  6274   00143A  6EFE               	movwf	tosh,c
  6275   00143C  50F8               	movf	tblptru,w,c
  6276   00143E  6EFF               	movwf	tosu,c
  6277   001440  50FA               	movf	pclath,w,c
  6278   001442  0012               	return		;indir
  6279   001444                     i1u486_29:
  6280   001444                     i1l4230:
  6281                           
  6282                           ;./lib.h: 1139:                 serialBuffer[serialBufferLen = 0] = '\0';
  6283   001444  0E00               	movlw	0
  6284   001446  6E5A               	movwf	_serialBufferLen^0,c
  6285   001448  0E90               	movlw	low _serialBuffer
  6286   00144A  245A               	addwf	_serialBufferLen^0,w,c
  6287   00144C  6ED9               	movwf	fsr2l,c
  6288   00144E  6ADA               	clrf	fsr2h,c
  6289   001450  0E01               	movlw	high _serialBuffer
  6290   001452  22DA               	addwfc	fsr2h,f,c
  6291   001454  6ADF               	clrf	indf2,c
  6292                           
  6293                           ;./lib.h: 1140:                 break;
  6294   001456  EF6E  F00A         	goto	i1l105
  6295   00145A                     i1l4232:
  6296                           
  6297                           ;./lib.h: 1145:                 if (serialOnReadChar)
  6298   00145A  0100               	movlb	0	; () banked
  6299   00145C  51FC               	movf	_serialOnReadChar& (0+255),w,b
  6300   00145E  11FD               	iorwf	(_serialOnReadChar+1)& (0+255),w,b
  6301   001460  B4D8               	btfsc	status,2,c
  6302   001462  EF35  F00A         	goto	i1u487_21
  6303   001466  EF37  F00A         	goto	i1u487_20
  6304   00146A                     i1u487_21:
  6305   00146A  EF45  F00A         	goto	i1l4236
  6306   00146E                     i1u487_20:
  6307   00146E                     
  6308                           ; BSR set to: 0
  6309                           ;./lib.h: 1146:                     serialOnReadChar(c);
  6310   00146E  D802               	call	i1u488_28
  6311   001470  EF45  F00A         	goto	i1u488_29
  6312   001474                     i1u488_28:
  6313   001474  0005               	push	
  6314   001476  6EFA               	movwf	pclath,c
  6315   001478  51FC               	movf	_serialOnReadChar& (0+255),w,b
  6316   00147A  6EFD               	movwf	tosl,c
  6317   00147C  51FD               	movf	(_serialOnReadChar+1)& (0+255),w,b
  6318   00147E  6EFE               	movwf	tosh,c
  6319   001480  50F8               	movf	tblptru,w,c
  6320   001482  6EFF               	movwf	tosu,c
  6321   001484  50FA               	movf	pclath,w,c
  6322   001486  5032               	movf	processSerialReceive@c^0,w,c
  6323   001488  0012               	return		;indir
  6324   00148A                     i1u488_29:
  6325   00148A                     i1l4236:
  6326                           
  6327                           ;./lib.h: 1148:                 if (serialBufferLen < (unsigned char)sizeof(serialBuffer
      +                          ) - 1) {
  6328   00148A  0E3F               	movlw	63
  6329   00148C  605A               	cpfslt	_serialBufferLen^0,c
  6330   00148E  EF4B  F00A         	goto	i1u489_21
  6331   001492  EF4D  F00A         	goto	i1u489_20
  6332   001496                     i1u489_21:
  6333   001496  EF6E  F00A         	goto	i1l105
  6334   00149A                     i1u489_20:
  6335   00149A                     
  6336                           ;./lib.h: 1149:                     serialWrite(c);
  6337   00149A  5032               	movf	processSerialReceive@c^0,w,c
  6338   00149C  ECD5  F015         	call	_serialWrite
  6339   0014A0                     
  6340                           ;./lib.h: 1150:                     serialBuffer[serialBufferLen++] = c;
  6341   0014A0  0E90               	movlw	low _serialBuffer
  6342   0014A2  245A               	addwf	_serialBufferLen^0,w,c
  6343   0014A4  6ED9               	movwf	fsr2l,c
  6344   0014A6  6ADA               	clrf	fsr2h,c
  6345   0014A8  0E01               	movlw	high _serialBuffer
  6346   0014AA  22DA               	addwfc	fsr2h,f,c
  6347   0014AC  C032  FFDF         	movff	processSerialReceive@c,indf2
  6348   0014B0  2A5A               	incf	_serialBufferLen^0,f,c
  6349   0014B2  EF6E  F00A         	goto	i1l105
  6350   0014B6                     i1l4244:
  6351   0014B6  5032               	movf	processSerialReceive@c^0,w,c
  6352                           
  6353                           ; Switch size 1, requested type "simple"
  6354                           ; Number of cases is 4, Range of values is 10 to 255
  6355                           ; switch strategies available:
  6356                           ; Name         Instructions Cycles
  6357                           ; simple_byte           13     7 (average)
  6358                           ;	Chosen strategy is simple_byte
  6359   0014B8  0A0A               	xorlw	10	; case 10
  6360   0014BA  B4D8               	btfsc	status,2,c
  6361   0014BC  EFDF  F009         	goto	i1l4214
  6362   0014C0  0A07               	xorlw	7	; case 13
  6363   0014C2  B4D8               	btfsc	status,2,c
  6364   0014C4  EFDF  F009         	goto	i1l4214
  6365   0014C8  0A72               	xorlw	114	; case 127
  6366   0014CA  B4D8               	btfsc	status,2,c
  6367   0014CC  EFC2  F009         	goto	i1l4206
  6368   0014D0  0A80               	xorlw	128	; case 255
  6369   0014D2  B4D8               	btfsc	status,2,c
  6370   0014D4  EF6E  F00A         	goto	i1l105
  6371   0014D8  EF2D  F00A         	goto	i1l4232
  6372   0014DC                     i1l105:
  6373                           
  6374                           ;./lib.h: 1153:             serialLastChar = c;
  6375   0014DC  C032  F059         	movff	processSerialReceive@c,_serialLastChar
  6376   0014E0                     i1l4246:
  6377                           
  6378                           ;./lib.h: 1155:         return 1;
  6379   0014E0  0E01               	movlw	1
  6380   0014E2  EF74  F00A         	goto	i1l114
  6381   0014E6                     i1l4250:
  6382                           
  6383                           ;./lib.h: 1157:     return 0;
  6384   0014E6  0E00               	movlw	0
  6385   0014E8                     i1l114:
  6386   0014E8  0012               	return		;funcret
  6387   0014EA                     __end_of_processSerialReceive:
  6388                           	callstack 0
  6389                           
  6390 ;; *************** function _serialWrite *****************
  6391 ;; Defined at:
  6392 ;;		line 1046 in file "./lib.h"
  6393 ;; Parameters:    Size  Location     Type
  6394 ;;  c               1    wreg     unsigned char 
  6395 ;; Auto vars:     Size  Location     Type
  6396 ;;  c               1    0[COMRAM] unsigned char 
  6397 ;; Return value:  Size  Location     Type
  6398 ;;                  1    wreg      void 
  6399 ;; Registers used:
  6400 ;;		wreg
  6401 ;; Tracked objects:
  6402 ;;		On entry : 0/0
  6403 ;;		On exit  : 0/0
  6404 ;;		Unchanged: 0/0
  6405 ;; Data sizes:     COMRAM   BANK0   BANK1   BANK2   BANK3   BANK4   BANK5
  6406 ;;      Params:         0       0       0       0       0       0       0
  6407 ;;      Locals:         1       0       0       0       0       0       0
  6408 ;;      Temps:          0       0       0       0       0       0       0
  6409 ;;      Totals:         1       0       0       0       0       0       0
  6410 ;;Total ram usage:        1 bytes
  6411 ;; Hardware stack levels used: 1
  6412 ;; This function calls:
  6413 ;;		Nothing
  6414 ;; This function is called by:
  6415 ;;		_processSerialReceive
  6416 ;; This function uses a non-reentrant model
  6417 ;;
  6418                           
  6419                           	psect	text29
  6420   002BAA                     __ptext29:
  6421                           	callstack 0
  6422   002BAA                     _serialWrite:
  6423                           	callstack 23
  6424                           
  6425                           ;incstack = 0
  6426                           ;serialWrite@c stored from wreg
  6427   002BAA  6E01               	movwf	serialWrite@c^0,c
  6428   002BAC                     i1l68:
  6429   002BAC  A2AC               	btfss	172,1,c	;volatile
  6430   002BAE  EFDB  F015         	goto	i1u304_21
  6431   002BB2  EFDD  F015         	goto	i1u304_20
  6432   002BB6                     i1u304_21:
  6433   002BB6  EFD6  F015         	goto	i1l68
  6434   002BBA                     i1u304_20:
  6435   002BBA                     
  6436                           ;./lib.h: 1048:     TXREG = c;
  6437   002BBA  C001  FFAD         	movff	serialWrite@c,4013	;volatile
  6438   002BBE  0012               	return		;funcret
  6439   002BC0                     __end_of_serialWrite:
  6440                           	callstack 0
  6441                           
  6442 ;; *************** function _serialRead *****************
  6443 ;; Defined at:
  6444 ;;		line 1082 in file "./lib.h"
  6445 ;; Parameters:    Size  Location     Type
  6446 ;;		None
  6447 ;; Auto vars:     Size  Location     Type
  6448 ;;		None
  6449 ;; Return value:  Size  Location     Type
  6450 ;;                  1    wreg      unsigned char 
  6451 ;; Registers used:
  6452 ;;		wreg, status,2
  6453 ;; Tracked objects:
  6454 ;;		On entry : 0/0
  6455 ;;		On exit  : 0/0
  6456 ;;		Unchanged: 0/0
  6457 ;; Data sizes:     COMRAM   BANK0   BANK1   BANK2   BANK3   BANK4   BANK5
  6458 ;;      Params:         0       0       0       0       0       0       0
  6459 ;;      Locals:         0       0       0       0       0       0       0
  6460 ;;      Temps:          0       0       0       0       0       0       0
  6461 ;;      Totals:         0       0       0       0       0       0       0
  6462 ;;Total ram usage:        0 bytes
  6463 ;; Hardware stack levels used: 1
  6464 ;; This function calls:
  6465 ;;		Nothing
  6466 ;; This function is called by:
  6467 ;;		_processSerialReceive
  6468 ;; This function uses a non-reentrant model
  6469 ;;
  6470                           
  6471                           	psect	text30
  6472   002BD2                     __ptext30:
  6473                           	callstack 0
  6474   002BD2                     _serialRead:
  6475                           	callstack 23
  6476   002BD2                     i1l83:
  6477   002BD2  AA9E               	btfss	158,5,c	;volatile
  6478   002BD4  EFEE  F015         	goto	i1u305_21
  6479   002BD8  EFF0  F015         	goto	i1u305_20
  6480   002BDC                     i1u305_21:
  6481   002BDC  EFE9  F015         	goto	i1l83
  6482   002BE0                     i1u305_20:
  6483   002BE0                     
  6484                           ;./lib.h: 1084:     return RCREG;
  6485   002BE0  50AE               	movf	174,w,c	;volatile
  6486   002BE2  0012               	return		;funcret
  6487   002BE4                     __end_of_serialRead:
  6488                           	callstack 0
  6489                           
  6490 ;; *************** function _onReadLine *****************
  6491 ;; Defined at:
  6492 ;;		line 95 in file "tetris.c"
  6493 ;; Parameters:    Size  Location     Type
  6494 ;;  line            2   45[COMRAM] PTR unsigned char 
  6495 ;;		 -> serialBuffer(64), 
  6496 ;;  len             1   47[COMRAM] unsigned char 
  6497 ;; Auto vars:     Size  Location     Type
  6498 ;;		None
  6499 ;; Return value:  Size  Location     Type
  6500 ;;                  1    wreg      void 
  6501 ;; Registers used:
  6502 ;;		wreg, fsr1l, fsr1h, fsr2l, fsr2h, status,2, status,0, prodl, prodh, cstack
  6503 ;; Tracked objects:
  6504 ;;		On entry : 0/0
  6505 ;;		On exit  : 0/0
  6506 ;;		Unchanged: 0/0
  6507 ;; Data sizes:     COMRAM   BANK0   BANK1   BANK2   BANK3   BANK4   BANK5
  6508 ;;      Params:         3       0       0       0       0       0       0
  6509 ;;      Locals:         0       0       0       0       0       0       0
  6510 ;;      Temps:          1       0       0       0       0       0       0
  6511 ;;      Totals:         4       0       0       0       0       0       0
  6512 ;;Total ram usage:        4 bytes
  6513 ;; Hardware stack levels used: 1
  6514 ;; Hardware stack levels required when called: 4
  6515 ;; This function calls:
  6516 ;;		i1_generate_garbage
  6517 ;; This function is called by:
  6518 ;;		_main
  6519 ;;		_processSerialReceive
  6520 ;; This function uses a non-reentrant model
  6521 ;;
  6522                           
  6523                           	psect	text31
  6524   002B4C                     __ptext31:
  6525                           	callstack 0
  6526   002B4C                     _onReadLine:
  6527                           	callstack 19
  6528   002B4C                     
  6529                           ;tetris.c: 99:     if(line[0]=='T'){
  6530   002B4C  C02E  FFD9         	movff	onReadLine@line,fsr2l
  6531   002B50  C02F  FFDA         	movff	onReadLine@line+1,fsr2h
  6532   002B54  0E54               	movlw	84
  6533   002B56  18DE               	xorwf	postinc2,w,c
  6534   002B58  A4D8               	btfss	status,2,c
  6535   002B5A  EFB1  F015         	goto	i1u459_21
  6536   002B5E  EFB3  F015         	goto	i1u459_20
  6537   002B62                     i1u459_21:
  6538   002B62  EFBB  F015         	goto	i1l328
  6539   002B66                     i1u459_20:
  6540   002B66                     
  6541                           ;tetris.c: 100:         generate_garbage(1);
  6542   002B66  0E00               	movlw	0
  6543   002B68  6E2D               	movwf	(i1generate_garbage@line_count+1)^0,c
  6544   002B6A  0E01               	movlw	1
  6545   002B6C  6E2C               	movwf	i1generate_garbage@line_count^0,c
  6546   002B6E  EC17  F012         	call	i1_generate_garbage	;wreg free
  6547   002B72                     
  6548                           ;tetris.c: 101:         LATD += 0x20;
  6549   002B72  0E20               	movlw	32
  6550   002B74  268C               	addwf	140,f,c	;volatile
  6551   002B76                     i1l328:
  6552   002B76  0012               	return		;funcret
  6553   002B78                     __end_of_onReadLine:
  6554                           	callstack 0
  6555                           
  6556 ;; *************** function i1_generate_garbage *****************
  6557 ;; Defined at:
  6558 ;;		line 195 in file "./helpers.h"
  6559 ;; Parameters:    Size  Location     Type
  6560 ;;  line_count      2   43[COMRAM] int 
  6561 ;; Auto vars:     Size  Location     Type
  6562 ;;  bottom_row_i    2    0        const int 
  6563 ;; Return value:  Size  Location     Type
  6564 ;;                  1    wreg      void 
  6565 ;; Registers used:
  6566 ;;		wreg, fsr1l, fsr1h, fsr2l, fsr2h, status,2, status,0, prodl, prodh, cstack
  6567 ;; Tracked objects:
  6568 ;;		On entry : 0/0
  6569 ;;		On exit  : 0/0
  6570 ;;		Unchanged: 0/0
  6571 ;; Data sizes:     COMRAM   BANK0   BANK1   BANK2   BANK3   BANK4   BANK5
  6572 ;;      Params:         2       0       0       0       0       0       0
  6573 ;;      Locals:         0       0       0       0       0       0       0
  6574 ;;      Temps:          0       0       0       0       0       0       0
  6575 ;;      Totals:         2       0       0       0       0       0       0
  6576 ;;Total ram usage:        2 bytes
  6577 ;; Hardware stack levels used: 1
  6578 ;; Hardware stack levels required when called: 3
  6579 ;; This function calls:
  6580 ;;		i1_check_for_full_rows
  6581 ;;		i1_current_block_is_in_illegal_position
  6582 ;;		i1_drop_block_from_sky
  6583 ;;		i1_memmove
  6584 ;;		i1_memset
  6585 ;;		i1_reset_game
  6586 ;;		i1_solidify_current_block
  6587 ;; This function is called by:
  6588 ;;		_onReadLine
  6589 ;; This function uses a non-reentrant model
  6590 ;;
  6591                           
  6592                           	psect	text32
  6593   00242E                     __ptext32:
  6594                           	callstack 0
  6595   00242E                     i1_generate_garbage:
  6596                           	callstack 19
  6597   00242E                     
  6598                           ;./helpers.h: 197:     memmove(&display_matrix[0][0],
  6599   00242E  0E10               	movlw	low _display_matrix
  6600   002430  6E01               	movwf	i1memmove@d1^0,c
  6601   002432  0E01               	movlw	high _display_matrix
  6602   002434  6E02               	movwf	(i1memmove@d1+1)^0,c
  6603   002436  0E18               	movlw	low (_display_matrix+8)
  6604   002438  6E03               	movwf	i1memmove@s1^0,c
  6605   00243A  0E01               	movlw	high (_display_matrix+8)
  6606   00243C  6E04               	movwf	(i1memmove@s1+1)^0,c
  6607   00243E  0E00               	movlw	0
  6608   002440  6E06               	movwf	(i1memmove@n+1)^0,c
  6609   002442  0E78               	movlw	120
  6610   002444  6E05               	movwf	i1memmove@n^0,c
  6611   002446  EC75  F00A         	call	i1_memmove	;wreg free
  6612   00244A                     
  6613                           ;./helpers.h: 204:     memset(&display_matrix[bottom_row_index][0], 1, sizeof(display_ma
      +                          trix[0]));
  6614   00244A  0E88               	movlw	low (_display_matrix+120)
  6615   00244C  6E01               	movwf	i1memset@dest^0,c
  6616   00244E  0E01               	movlw	high (_display_matrix+120)
  6617   002450  6E02               	movwf	(i1memset@dest+1)^0,c
  6618   002452  0E00               	movlw	0
  6619   002454  6E04               	movwf	(i1memset@c+1)^0,c
  6620   002456  0E01               	movlw	1
  6621   002458  6E03               	movwf	i1memset@c^0,c
  6622   00245A  0E00               	movlw	0
  6623   00245C  6E06               	movwf	(i1memset@n+1)^0,c
  6624   00245E  0E08               	movlw	8
  6625   002460  6E05               	movwf	i1memset@n^0,c
  6626   002462  EC8A  F015         	call	i1_memset	;wreg free
  6627   002466                     
  6628                           ;./helpers.h: 205:     display_matrix[bottom_row_index][gap_position] = 0;
  6629   002466  0E88               	movlw	low (_display_matrix+120)
  6630   002468  0100               	movlb	0	; () banked
  6631   00246A  25FA               	addwf	_gap_position& (0+255),w,b
  6632   00246C  6ED9               	movwf	fsr2l,c
  6633   00246E  0E01               	movlw	high (_display_matrix+120)
  6634   002470  21FB               	addwfc	(_gap_position+1)& (0+255),w,b
  6635   002472  6EDA               	movwf	fsr2h,c
  6636   002474  6ADF               	clrf	indf2,c
  6637   002476                     
  6638                           ; BSR set to: 0
  6639                           ;./helpers.h: 207:     if (current_block_is_in_illegal_position()) {
  6640   002476  EC80  F00C         	call	i1_current_block_is_in_illegal_position	;wreg free
  6641   00247A  0900               	iorlw	0
  6642   00247C  B4D8               	btfsc	status,2,c
  6643   00247E  EF43  F012         	goto	i1u302_21
  6644   002482  EF45  F012         	goto	i1u302_20
  6645   002486                     i1u302_21:
  6646   002486  EF5C  F012         	goto	i1l291
  6647   00248A                     i1u302_20:
  6648   00248A                     
  6649                           ;./helpers.h: 208:         block_location_y--;
  6650   00248A  0650               	decf	_block_location_y^0,f,c
  6651   00248C  A0D8               	btfss	status,0,c
  6652   00248E  0651               	decf	(_block_location_y+1)^0,f,c
  6653   002490                     
  6654                           ;./helpers.h: 209:         solidify_current_block();
  6655   002490  ECBE  F00E         	call	i1_solidify_current_block	;wreg free
  6656   002494                     
  6657                           ;./helpers.h: 210:         check_for_full_rows();
  6658   002494  EC14  F005         	call	i1_check_for_full_rows	;wreg free
  6659   002498                     
  6660                           ;./helpers.h: 211:         drop_block_from_sky();
  6661   002498  EC47  F00F         	call	i1_drop_block_from_sky	;wreg free
  6662   00249C                     
  6663                           ;./helpers.h: 212:         if (current_block_is_in_illegal_position()) {
  6664   00249C  EC80  F00C         	call	i1_current_block_is_in_illegal_position	;wreg free
  6665   0024A0  0900               	iorlw	0
  6666   0024A2  B4D8               	btfsc	status,2,c
  6667   0024A4  EF56  F012         	goto	i1u303_21
  6668   0024A8  EF58  F012         	goto	i1u303_20
  6669   0024AC                     i1u303_21:
  6670   0024AC  EF5C  F012         	goto	i1l291
  6671   0024B0                     i1u303_20:
  6672   0024B0                     
  6673                           ;./helpers.h: 213:             reset_game();
  6674   0024B0  ECBB  F010         	call	i1_reset_game	;wreg free
  6675   0024B4                     
  6676                           ;./helpers.h: 214:             drop_block_from_sky();
  6677   0024B4  EC47  F00F         	call	i1_drop_block_from_sky	;wreg free
  6678   0024B8                     i1l291:
  6679   0024B8  0012               	return		;funcret
  6680   0024BA                     __end_ofi1_generate_garbage:
  6681                           	callstack 0
  6682                           
  6683 ;; *************** function i1_solidify_current_block *****************
  6684 ;; Defined at:
  6685 ;;		line 105 in file "./helpers.h"
  6686 ;; Parameters:    Size  Location     Type
  6687 ;;		None
  6688 ;; Auto vars:     Size  Location     Type
  6689 ;;  j               2   10[COMRAM] int 
  6690 ;;  i               2    8[COMRAM] int 
  6691 ;;  y               2    6[COMRAM] int 
  6692 ;;  x               2    4[COMRAM] int 
  6693 ;; Return value:  Size  Location     Type
  6694 ;;                  1    wreg      void 
  6695 ;; Registers used:
  6696 ;;		wreg, fsr2l, fsr2h, status,2, status,0, prodl, prodh
  6697 ;; Tracked objects:
  6698 ;;		On entry : 0/0
  6699 ;;		On exit  : 0/0
  6700 ;;		Unchanged: 0/0
  6701 ;; Data sizes:     COMRAM   BANK0   BANK1   BANK2   BANK3   BANK4   BANK5
  6702 ;;      Params:         0       0       0       0       0       0       0
  6703 ;;      Locals:         8       0       0       0       0       0       0
  6704 ;;      Temps:          4       0       0       0       0       0       0
  6705 ;;      Totals:        12       0       0       0       0       0       0
  6706 ;;Total ram usage:       12 bytes
  6707 ;; Hardware stack levels used: 1
  6708 ;; This function calls:
  6709 ;;		Nothing
  6710 ;; This function is called by:
  6711 ;;		i1_generate_garbage
  6712 ;; This function uses a non-reentrant model
  6713 ;;
  6714                           
  6715                           	psect	text33
  6716   001D7C                     __ptext33:
  6717                           	callstack 0
  6718   001D7C                     i1_solidify_current_block:
  6719                           	callstack 21
  6720   001D7C                     
  6721                           ;./helpers.h: 106:     for (int i = 0; i < 4; i++) {
  6722   001D7C  0E00               	movlw	0
  6723   001D7E  6E0A               	movwf	(i1solidify_current_block@i+1)^0,c
  6724   001D80  0E00               	movlw	0
  6725   001D82  6E09               	movwf	i1solidify_current_block@i^0,c
  6726   001D84                     i1l2580:
  6727                           
  6728                           ;./helpers.h: 107:         for (int j = 0; j < 4; j++) {
  6729   001D84  0E00               	movlw	0
  6730   001D86  6E0C               	movwf	(i1solidify_current_block@j+1)^0,c
  6731   001D88  0E00               	movlw	0
  6732   001D8A  6E0B               	movwf	i1solidify_current_block@j^0,c
  6733   001D8C                     i1l2586:
  6734                           
  6735                           ;./helpers.h: 108:             if (current_block[i][j]) {
  6736   001D8C  5009               	movf	i1solidify_current_block@i^0,w,c
  6737   001D8E  0D04               	mullw	4
  6738   001D90  50F3               	movf	243,w,c
  6739   001D92  0F3E               	addlw	low _current_block
  6740   001D94  240B               	addwf	i1solidify_current_block@j^0,w,c
  6741   001D96  6ED9               	movwf	fsr2l,c
  6742   001D98  6ADA               	clrf	fsr2h,c
  6743   001D9A  50DF               	movf	indf2,w,c
  6744   001D9C  B4D8               	btfsc	status,2,c
  6745   001D9E  EFD3  F00E         	goto	i1u232_21
  6746   001DA2  EFD5  F00E         	goto	i1u232_20
  6747   001DA6                     i1u232_21:
  6748   001DA6  EF26  F00F         	goto	i1l2598
  6749   001DAA                     i1u232_20:
  6750   001DAA                     
  6751                           ;./helpers.h: 109:                 int x = block_location_x + j;
  6752   001DAA  500B               	movf	i1solidify_current_block@j^0,w,c
  6753   001DAC  2452               	addwf	_block_location_x^0,w,c
  6754   001DAE  6E05               	movwf	i1solidify_current_block@x^0,c
  6755   001DB0  500C               	movf	(i1solidify_current_block@j+1)^0,w,c
  6756   001DB2  2053               	addwfc	(_block_location_x+1)^0,w,c
  6757   001DB4  6E06               	movwf	(i1solidify_current_block@x+1)^0,c
  6758                           
  6759                           ;./helpers.h: 110:                 int y = block_location_y + i;
  6760   001DB6  5009               	movf	i1solidify_current_block@i^0,w,c
  6761   001DB8  2450               	addwf	_block_location_y^0,w,c
  6762   001DBA  6E07               	movwf	i1solidify_current_block@y^0,c
  6763   001DBC  500A               	movf	(i1solidify_current_block@i+1)^0,w,c
  6764   001DBE  2051               	addwfc	(_block_location_y+1)^0,w,c
  6765   001DC0  6E08               	movwf	(i1solidify_current_block@y+1)^0,c
  6766                           
  6767                           ;./helpers.h: 111:                 if (x >= 0 && x < 8 && y >= 0 && y < 16) {
  6768   001DC2  BE06               	btfsc	(i1solidify_current_block@x+1)^0,7,c
  6769   001DC4  EFE6  F00E         	goto	i1u233_21
  6770   001DC8  EFE8  F00E         	goto	i1u233_20
  6771   001DCC                     i1u233_21:
  6772   001DCC  EF26  F00F         	goto	i1l2598
  6773   001DD0                     i1u233_20:
  6774   001DD0  BE06               	btfsc	(i1solidify_current_block@x+1)^0,7,c
  6775   001DD2  EFF6  F00E         	goto	i1u234_20
  6776   001DD6  5006               	movf	(i1solidify_current_block@x+1)^0,w,c
  6777   001DD8  E107               	bnz	i1u234_21
  6778   001DDA  0E08               	movlw	8
  6779   001DDC  5C05               	subwf	i1solidify_current_block@x^0,w,c
  6780   001DDE  B0D8               	btfsc	status,0,c
  6781   001DE0  EFF4  F00E         	goto	i1u234_21
  6782   001DE4  EFF6  F00E         	goto	i1u234_20
  6783   001DE8                     i1u234_21:
  6784   001DE8  EF26  F00F         	goto	i1l2598
  6785   001DEC                     i1u234_20:
  6786   001DEC  BE08               	btfsc	(i1solidify_current_block@y+1)^0,7,c
  6787   001DEE  EFFB  F00E         	goto	i1u235_21
  6788   001DF2  EFFD  F00E         	goto	i1u235_20
  6789   001DF6                     i1u235_21:
  6790   001DF6  EF26  F00F         	goto	i1l2598
  6791   001DFA                     i1u235_20:
  6792   001DFA  BE08               	btfsc	(i1solidify_current_block@y+1)^0,7,c
  6793   001DFC  EF0B  F00F         	goto	i1u236_20
  6794   001E00  5008               	movf	(i1solidify_current_block@y+1)^0,w,c
  6795   001E02  E107               	bnz	i1u236_21
  6796   001E04  0E10               	movlw	16
  6797   001E06  5C07               	subwf	i1solidify_current_block@y^0,w,c
  6798   001E08  B0D8               	btfsc	status,0,c
  6799   001E0A  EF09  F00F         	goto	i1u236_21
  6800   001E0E  EF0B  F00F         	goto	i1u236_20
  6801   001E12                     i1u236_21:
  6802   001E12  EF26  F00F         	goto	i1l2598
  6803   001E16                     i1u236_20:
  6804   001E16                     
  6805                           ;./helpers.h: 112:                     display_matrix[y][x] = 1;
  6806   001E16  C007  F001         	movff	i1solidify_current_block@y,??i1_solidify_current_block
  6807   001E1A  C008  F002         	movff	i1solidify_current_block@y+1,??i1_solidify_current_block+1
  6808   001E1E  90D8               	bcf	status,0,c
  6809   001E20  3601               	rlcf	??i1_solidify_current_block^0,f,c
  6810   001E22  3602               	rlcf	(??i1_solidify_current_block+1)^0,f,c
  6811   001E24  90D8               	bcf	status,0,c
  6812   001E26  3601               	rlcf	??i1_solidify_current_block^0,f,c
  6813   001E28  3602               	rlcf	(??i1_solidify_current_block+1)^0,f,c
  6814   001E2A  90D8               	bcf	status,0,c
  6815   001E2C  3601               	rlcf	??i1_solidify_current_block^0,f,c
  6816   001E2E  3602               	rlcf	(??i1_solidify_current_block+1)^0,f,c
  6817   001E30  0E10               	movlw	low _display_matrix
  6818   001E32  2401               	addwf	??i1_solidify_current_block^0,w,c
  6819   001E34  6E03               	movwf	(??i1_solidify_current_block+2)^0,c
  6820   001E36  0E01               	movlw	high _display_matrix
  6821   001E38  2002               	addwfc	(??i1_solidify_current_block+1)^0,w,c
  6822   001E3A  6E04               	movwf	(??i1_solidify_current_block+3)^0,c
  6823   001E3C  5005               	movf	i1solidify_current_block@x^0,w,c
  6824   001E3E  2403               	addwf	(??i1_solidify_current_block+2)^0,w,c
  6825   001E40  6ED9               	movwf	fsr2l,c
  6826   001E42  5006               	movf	(i1solidify_current_block@x+1)^0,w,c
  6827   001E44  2004               	addwfc	(??i1_solidify_current_block+3)^0,w,c
  6828   001E46  6EDA               	movwf	fsr2h,c
  6829   001E48  0E01               	movlw	1
  6830   001E4A  6EDF               	movwf	indf2,c
  6831   001E4C                     i1l2598:
  6832                           
  6833                           ;./helpers.h: 115:         }
  6834   001E4C  4A0B               	infsnz	i1solidify_current_block@j^0,f,c
  6835   001E4E  2A0C               	incf	(i1solidify_current_block@j+1)^0,f,c
  6836   001E50  BE0C               	btfsc	(i1solidify_current_block@j+1)^0,7,c
  6837   001E52  EF34  F00F         	goto	i1u237_21
  6838   001E56  500C               	movf	(i1solidify_current_block@j+1)^0,w,c
  6839   001E58  E109               	bnz	i1u237_20
  6840   001E5A  0E04               	movlw	4
  6841   001E5C  5C0B               	subwf	i1solidify_current_block@j^0,w,c
  6842   001E5E  A0D8               	btfss	status,0,c
  6843   001E60  EF34  F00F         	goto	i1u237_21
  6844   001E64  EF36  F00F         	goto	i1u237_20
  6845   001E68                     i1u237_21:
  6846   001E68  EFC6  F00E         	goto	i1l2586
  6847   001E6C                     i1u237_20:
  6848   001E6C                     
  6849                           ;./helpers.h: 116:     }
  6850   001E6C  4A09               	infsnz	i1solidify_current_block@i^0,f,c
  6851   001E6E  2A0A               	incf	(i1solidify_current_block@i+1)^0,f,c
  6852   001E70  BE0A               	btfsc	(i1solidify_current_block@i+1)^0,7,c
  6853   001E72  EF44  F00F         	goto	i1u238_21
  6854   001E76  500A               	movf	(i1solidify_current_block@i+1)^0,w,c
  6855   001E78  E109               	bnz	i1u238_20
  6856   001E7A  0E04               	movlw	4
  6857   001E7C  5C09               	subwf	i1solidify_current_block@i^0,w,c
  6858   001E7E  A0D8               	btfss	status,0,c
  6859   001E80  EF44  F00F         	goto	i1u238_21
  6860   001E84  EF46  F00F         	goto	i1u238_20
  6861   001E88                     i1u238_21:
  6862   001E88  EFC2  F00E         	goto	i1l2580
  6863   001E8C                     i1u238_20:
  6864   001E8C  0012               	return		;funcret
  6865   001E8E                     __end_ofi1_solidify_current_block:
  6866                           	callstack 0
  6867                           
  6868 ;; *************** function i1_reset_game *****************
  6869 ;; Defined at:
  6870 ;;		line 140 in file "./helpers.h"
  6871 ;; Parameters:    Size  Location     Type
  6872 ;;		None
  6873 ;; Auto vars:     Size  Location     Type
  6874 ;;  j               2   12[COMRAM] int 
  6875 ;;  i               2   10[COMRAM] int 
  6876 ;; Return value:  Size  Location     Type
  6877 ;;                  1    wreg      void 
  6878 ;; Registers used:
  6879 ;;		wreg, fsr2l, fsr2h, status,2, status,0, cstack
  6880 ;; Tracked objects:
  6881 ;;		On entry : 0/0
  6882 ;;		On exit  : 0/0
  6883 ;;		Unchanged: 0/0
  6884 ;; Data sizes:     COMRAM   BANK0   BANK1   BANK2   BANK3   BANK4   BANK5
  6885 ;;      Params:         0       0       0       0       0       0       0
  6886 ;;      Locals:         4       0       0       0       0       0       0
  6887 ;;      Temps:          4       0       0       0       0       0       0
  6888 ;;      Totals:         8       0       0       0       0       0       0
  6889 ;;Total ram usage:        8 bytes
  6890 ;; Hardware stack levels used: 1
  6891 ;; Hardware stack levels required when called: 1
  6892 ;; This function calls:
  6893 ;;		i1_update_score
  6894 ;; This function is called by:
  6895 ;;		i1_generate_garbage
  6896 ;; This function uses a non-reentrant model
  6897 ;;
  6898                           
  6899                           	psect	text34
  6900   002176                     __ptext34:
  6901                           	callstack 0
  6902   002176                     i1_reset_game:
  6903                           	callstack 20
  6904   002176                     
  6905                           ;./helpers.h: 141:     score = 0;
  6906   002176  0E00               	movlw	0
  6907   002178  6E4F               	movwf	(_score+1)^0,c
  6908   00217A  0E00               	movlw	0
  6909   00217C  6E4E               	movwf	_score^0,c
  6910                           
  6911                           ;./helpers.h: 142:     game_speed_ticks = 16;
  6912   00217E  0E10               	movlw	16
  6913   002180  6E60               	movwf	_game_speed_ticks^0,c
  6914                           
  6915                           ;./helpers.h: 143:     for (int i = 0; i < 16; i++) {
  6916   002182  0E00               	movlw	0
  6917   002184  6E0C               	movwf	(i1reset_game@i+1)^0,c
  6918   002186  0E00               	movlw	0
  6919   002188  6E0B               	movwf	i1reset_game@i^0,c
  6920   00218A                     i1l2678:
  6921                           
  6922                           ;./helpers.h: 144:         for (int j = 0; j < 8; j++) {
  6923   00218A  0E00               	movlw	0
  6924   00218C  6E0E               	movwf	(i1reset_game@j+1)^0,c
  6925   00218E  0E00               	movlw	0
  6926   002190  6E0D               	movwf	i1reset_game@j^0,c
  6927   002192                     i1l2684:
  6928                           
  6929                           ;./helpers.h: 145:             display_matrix[i][j] = 0;
  6930   002192  C00B  F007         	movff	i1reset_game@i,??i1_reset_game
  6931   002196  C00C  F008         	movff	i1reset_game@i+1,??i1_reset_game+1
  6932   00219A  90D8               	bcf	status,0,c
  6933   00219C  3607               	rlcf	??i1_reset_game^0,f,c
  6934   00219E  3608               	rlcf	(??i1_reset_game+1)^0,f,c
  6935   0021A0  90D8               	bcf	status,0,c
  6936   0021A2  3607               	rlcf	??i1_reset_game^0,f,c
  6937   0021A4  3608               	rlcf	(??i1_reset_game+1)^0,f,c
  6938   0021A6  90D8               	bcf	status,0,c
  6939   0021A8  3607               	rlcf	??i1_reset_game^0,f,c
  6940   0021AA  3608               	rlcf	(??i1_reset_game+1)^0,f,c
  6941   0021AC  0E10               	movlw	low _display_matrix
  6942   0021AE  2407               	addwf	??i1_reset_game^0,w,c
  6943   0021B0  6E09               	movwf	(??i1_reset_game+2)^0,c
  6944   0021B2  0E01               	movlw	high _display_matrix
  6945   0021B4  2008               	addwfc	(??i1_reset_game+1)^0,w,c
  6946   0021B6  6E0A               	movwf	(??i1_reset_game+3)^0,c
  6947   0021B8  500D               	movf	i1reset_game@j^0,w,c
  6948   0021BA  2409               	addwf	(??i1_reset_game+2)^0,w,c
  6949   0021BC  6ED9               	movwf	fsr2l,c
  6950   0021BE  500E               	movf	(i1reset_game@j+1)^0,w,c
  6951   0021C0  200A               	addwfc	(??i1_reset_game+3)^0,w,c
  6952   0021C2  6EDA               	movwf	fsr2h,c
  6953   0021C4  6ADF               	clrf	indf2,c
  6954                           
  6955                           ;./helpers.h: 146:             board[i][j] = 0;
  6956   0021C6  C00B  F007         	movff	i1reset_game@i,??i1_reset_game
  6957   0021CA  C00C  F008         	movff	i1reset_game@i+1,??i1_reset_game+1
  6958   0021CE  90D8               	bcf	status,0,c
  6959   0021D0  3607               	rlcf	??i1_reset_game^0,f,c
  6960   0021D2  3608               	rlcf	(??i1_reset_game+1)^0,f,c
  6961   0021D4  90D8               	bcf	status,0,c
  6962   0021D6  3607               	rlcf	??i1_reset_game^0,f,c
  6963   0021D8  3608               	rlcf	(??i1_reset_game+1)^0,f,c
  6964   0021DA  90D8               	bcf	status,0,c
  6965   0021DC  3607               	rlcf	??i1_reset_game^0,f,c
  6966   0021DE  3608               	rlcf	(??i1_reset_game+1)^0,f,c
  6967   0021E0  0E00               	movlw	low _board
  6968   0021E2  2407               	addwf	??i1_reset_game^0,w,c
  6969   0021E4  6E09               	movwf	(??i1_reset_game+2)^0,c
  6970   0021E6  0E02               	movlw	high _board
  6971   0021E8  2008               	addwfc	(??i1_reset_game+1)^0,w,c
  6972   0021EA  6E0A               	movwf	(??i1_reset_game+3)^0,c
  6973   0021EC  500D               	movf	i1reset_game@j^0,w,c
  6974   0021EE  2409               	addwf	(??i1_reset_game+2)^0,w,c
  6975   0021F0  6ED9               	movwf	fsr2l,c
  6976   0021F2  500E               	movf	(i1reset_game@j+1)^0,w,c
  6977   0021F4  200A               	addwfc	(??i1_reset_game+3)^0,w,c
  6978   0021F6  6EDA               	movwf	fsr2h,c
  6979   0021F8  6ADF               	clrf	indf2,c
  6980   0021FA                     
  6981                           ;./helpers.h: 147:         }
  6982   0021FA  4A0D               	infsnz	i1reset_game@j^0,f,c
  6983   0021FC  2A0E               	incf	(i1reset_game@j+1)^0,f,c
  6984   0021FE  BE0E               	btfsc	(i1reset_game@j+1)^0,7,c
  6985   002200  EF0B  F011         	goto	i1u248_21
  6986   002204  500E               	movf	(i1reset_game@j+1)^0,w,c
  6987   002206  E109               	bnz	i1u248_20
  6988   002208  0E08               	movlw	8
  6989   00220A  5C0D               	subwf	i1reset_game@j^0,w,c
  6990   00220C  A0D8               	btfss	status,0,c
  6991   00220E  EF0B  F011         	goto	i1u248_21
  6992   002212  EF0D  F011         	goto	i1u248_20
  6993   002216                     i1u248_21:
  6994   002216  EFC9  F010         	goto	i1l2684
  6995   00221A                     i1u248_20:
  6996   00221A                     
  6997                           ;./helpers.h: 148:     }
  6998   00221A  4A0B               	infsnz	i1reset_game@i^0,f,c
  6999   00221C  2A0C               	incf	(i1reset_game@i+1)^0,f,c
  7000   00221E  BE0C               	btfsc	(i1reset_game@i+1)^0,7,c
  7001   002220  EF1B  F011         	goto	i1u249_21
  7002   002224  500C               	movf	(i1reset_game@i+1)^0,w,c
  7003   002226  E109               	bnz	i1u249_20
  7004   002228  0E10               	movlw	16
  7005   00222A  5C0B               	subwf	i1reset_game@i^0,w,c
  7006   00222C  A0D8               	btfss	status,0,c
  7007   00222E  EF1B  F011         	goto	i1u249_21
  7008   002232  EF1D  F011         	goto	i1u249_20
  7009   002236                     i1u249_21:
  7010   002236  EFC5  F010         	goto	i1l2678
  7011   00223A                     i1u249_20:
  7012   00223A                     
  7013                           ;./helpers.h: 149:     update_score();
  7014   00223A  ECD9  F012         	call	i1_update_score	;wreg free
  7015   00223E  0012               	return		;funcret
  7016   002240                     __end_ofi1_reset_game:
  7017                           	callstack 0
  7018                           
  7019 ;; *************** function i1_memset *****************
  7020 ;; Defined at:
  7021 ;;		line 3 in file "C:\Program Files\Microchip\xc8\v3.00\pic\sources\c99\common\memset.c"
  7022 ;; Parameters:    Size  Location     Type
  7023 ;;  dest            2    0[COMRAM] PTR void 
  7024 ;;		 -> display_matrix(128), 
  7025 ;;  c               2    2[COMRAM] int 
  7026 ;;  n               2    4[COMRAM] unsigned int 
  7027 ;; Auto vars:     Size  Location     Type
  7028 ;;  p               2    6[COMRAM] PTR unsigned char 
  7029 ;;		 -> display_matrix(128), 
  7030 ;; Return value:  Size  Location     Type
  7031 ;;                  2    0[COMRAM] PTR void 
  7032 ;; Registers used:
  7033 ;;		wreg, fsr2l, fsr2h, status,2, status,0
  7034 ;; Tracked objects:
  7035 ;;		On entry : 0/0
  7036 ;;		On exit  : 0/0
  7037 ;;		Unchanged: 0/0
  7038 ;; Data sizes:     COMRAM   BANK0   BANK1   BANK2   BANK3   BANK4   BANK5
  7039 ;;      Params:         6       0       0       0       0       0       0
  7040 ;;      Locals:         2       0       0       0       0       0       0
  7041 ;;      Temps:          0       0       0       0       0       0       0
  7042 ;;      Totals:         8       0       0       0       0       0       0
  7043 ;;Total ram usage:        8 bytes
  7044 ;; Hardware stack levels used: 1
  7045 ;; This function calls:
  7046 ;;		Nothing
  7047 ;; This function is called by:
  7048 ;;		i1_generate_garbage
  7049 ;; This function uses a non-reentrant model
  7050 ;;
  7051                           
  7052                           	psect	text35
  7053   002B14                     __ptext35:
  7054                           	callstack 0
  7055   002B14                     i1_memset:
  7056                           	callstack 21
  7057   002B14  C001  F007         	movff	i1memset@dest,i1memset@p
  7058   002B18  C002  F008         	movff	i1memset@dest+1,i1memset@p+1
  7059   002B1C  EF98  F015         	goto	i1l2780
  7060   002B20                     i1l2776:
  7061   002B20  C007  FFD9         	movff	i1memset@p,fsr2l
  7062   002B24  C008  FFDA         	movff	i1memset@p+1,fsr2h
  7063   002B28  C003  FFDF         	movff	i1memset@c,indf2
  7064   002B2C  4A07               	infsnz	i1memset@p^0,f,c
  7065   002B2E  2A08               	incf	(i1memset@p+1)^0,f,c
  7066   002B30                     i1l2780:
  7067   002B30  0605               	decf	i1memset@n^0,f,c
  7068   002B32  A0D8               	btfss	status,0,c
  7069   002B34  0606               	decf	(i1memset@n+1)^0,f,c
  7070   002B36  2805               	incf	i1memset@n^0,w,c
  7071   002B38  E106               	bnz	i1u261_21
  7072   002B3A  2806               	incf	(i1memset@n+1)^0,w,c
  7073   002B3C  A4D8               	btfss	status,2,c
  7074   002B3E  EFA3  F015         	goto	i1u261_21
  7075   002B42  EFA5  F015         	goto	i1u261_20
  7076   002B46                     i1u261_21:
  7077   002B46  EF90  F015         	goto	i1l2776
  7078   002B4A                     i1u261_20:
  7079   002B4A  0012               	return		;funcret
  7080   002B4C                     __end_ofi1_memset:
  7081                           	callstack 0
  7082                           
  7083 ;; *************** function i1_memmove *****************
  7084 ;; Defined at:
  7085 ;;		line 5 in file "C:\Program Files\Microchip\xc8\v3.00\pic\sources\c99\common\memmove.c"
  7086 ;; Parameters:    Size  Location     Type
  7087 ;;  d1              2    0[COMRAM] PTR void 
  7088 ;;		 -> display_matrix(128), 
  7089 ;;  s1              2    2[COMRAM] PTR const void 
  7090 ;;		 -> display_matrix(128), 
  7091 ;;  n               2    4[COMRAM] unsigned int 
  7092 ;; Auto vars:     Size  Location     Type
  7093 ;;  d               3   28[COMRAM] struct .
  7094 ;;  s               3   25[COMRAM] struct .
  7095 ;;  c               1   24[COMRAM] unsigned char 
  7096 ;; Return value:  Size  Location     Type
  7097 ;;                  2    0[COMRAM] PTR void 
  7098 ;; Registers used:
  7099 ;;		wreg, fsr2l, fsr2h, status,2, status,0
  7100 ;; Tracked objects:
  7101 ;;		On entry : 0/0
  7102 ;;		On exit  : 0/0
  7103 ;;		Unchanged: 0/0
  7104 ;; Data sizes:     COMRAM   BANK0   BANK1   BANK2   BANK3   BANK4   BANK5
  7105 ;;      Params:         6       0       0       0       0       0       0
  7106 ;;      Locals:         7       0       0       0       0       0       0
  7107 ;;      Temps:         18       0       0       0       0       0       0
  7108 ;;      Totals:        31       0       0       0       0       0       0
  7109 ;;Total ram usage:       31 bytes
  7110 ;; Hardware stack levels used: 1
  7111 ;; This function calls:
  7112 ;;		Nothing
  7113 ;; This function is called by:
  7114 ;;		i1_generate_garbage
  7115 ;; This function uses a non-reentrant model
  7116 ;;
  7117                           
  7118                           	psect	text36
  7119   0014EA                     __ptext36:
  7120                           	callstack 0
  7121   0014EA                     i1_memmove:
  7122                           	callstack 21
  7123   0014EA  0E00               	movlw	0
  7124   0014EC  6E1D               	movwf	i1memmove@d^0,c
  7125   0014EE  0E00               	movlw	0
  7126   0014F0  6E1E               	movwf	(i1memmove@d+1)^0,c
  7127   0014F2  0E00               	movlw	0
  7128   0014F4  6E1F               	movwf	(i1memmove@d+2)^0,c
  7129   0014F6  0E00               	movlw	0
  7130   0014F8  6E1A               	movwf	i1memmove@s^0,c
  7131   0014FA  0E00               	movlw	0
  7132   0014FC  6E1B               	movwf	(i1memmove@s+1)^0,c
  7133   0014FE  0E00               	movlw	0
  7134   001500  6E1C               	movwf	(i1memmove@s+2)^0,c
  7135   001502  C003  F01A         	movff	i1memmove@s1,i1memmove@s
  7136   001506  C004  F01B         	movff	i1memmove@s1+1,i1memmove@s+1
  7137   00150A  C001  F01D         	movff	i1memmove@d1,i1memmove@d
  7138   00150E  C002  F01E         	movff	i1memmove@d1+1,i1memmove@d+1
  7139   001512  0EFF               	movlw	255
  7140   001514  141D               	andwf	i1memmove@d^0,w,c
  7141   001516  6E07               	movwf	??i1_memmove^0,c
  7142   001518  0EFF               	movlw	255
  7143   00151A  141E               	andwf	(i1memmove@d+1)^0,w,c
  7144   00151C  6E08               	movwf	(??i1_memmove+1)^0,c
  7145   00151E  0E01               	movlw	1
  7146   001520  141F               	andwf	(i1memmove@d+2)^0,w,c
  7147   001522  6E09               	movwf	(??i1_memmove+2)^0,c
  7148   001524  0EFF               	movlw	255
  7149   001526  141A               	andwf	i1memmove@s^0,w,c
  7150   001528  6E0A               	movwf	(??i1_memmove+3)^0,c
  7151   00152A  0EFF               	movlw	255
  7152   00152C  141B               	andwf	(i1memmove@s+1)^0,w,c
  7153   00152E  6E0B               	movwf	(??i1_memmove+4)^0,c
  7154   001530  0E01               	movlw	1
  7155   001532  141C               	andwf	(i1memmove@s+2)^0,w,c
  7156   001534  6E0C               	movwf	(??i1_memmove+5)^0,c
  7157   001536  5007               	movf	??i1_memmove^0,w,c
  7158   001538  5C0A               	subwf	(??i1_memmove+3)^0,w,c
  7159   00153A  5008               	movf	(??i1_memmove+1)^0,w,c
  7160   00153C  580B               	subwfb	(??i1_memmove+4)^0,w,c
  7161   00153E  5009               	movf	(??i1_memmove+2)^0,w,c
  7162   001540  580C               	subwfb	(??i1_memmove+5)^0,w,c
  7163   001542  B0D8               	btfsc	status,0,c
  7164   001544  EFA6  F00A         	goto	i1u256_21
  7165   001548  EFA8  F00A         	goto	i1u256_20
  7166   00154C                     i1u256_21:
  7167   00154C  EF0B  F00B         	goto	i1l2762
  7168   001550                     i1u256_20:
  7169   001550  0EFF               	movlw	255
  7170   001552  141A               	andwf	i1memmove@s^0,w,c
  7171   001554  6E07               	movwf	??i1_memmove^0,c
  7172   001556  0EFF               	movlw	255
  7173   001558  141B               	andwf	(i1memmove@s+1)^0,w,c
  7174   00155A  6E08               	movwf	(??i1_memmove+1)^0,c
  7175   00155C  0E01               	movlw	1
  7176   00155E  141C               	andwf	(i1memmove@s+2)^0,w,c
  7177   001560  6E09               	movwf	(??i1_memmove+2)^0,c
  7178   001562  5007               	movf	??i1_memmove^0,w,c
  7179   001564  6E0A               	movwf	(??i1_memmove+3)^0,c
  7180   001566  5008               	movf	(??i1_memmove+1)^0,w,c
  7181   001568  6E0B               	movwf	(??i1_memmove+4)^0,c
  7182   00156A  5009               	movf	(??i1_memmove+2)^0,w,c
  7183   00156C  6E0C               	movwf	(??i1_memmove+5)^0,c
  7184   00156E  6A0D               	clrf	(??i1_memmove+6)^0,c
  7185   001570  5005               	movf	i1memmove@n^0,w,c
  7186   001572  240A               	addwf	(??i1_memmove+3)^0,w,c
  7187   001574  6E0E               	movwf	(??i1_memmove+7)^0,c
  7188   001576  5006               	movf	(i1memmove@n+1)^0,w,c
  7189   001578  200B               	addwfc	(??i1_memmove+4)^0,w,c
  7190   00157A  6E0F               	movwf	(??i1_memmove+8)^0,c
  7191   00157C  0E00               	movlw	0
  7192   00157E  200C               	addwfc	(??i1_memmove+5)^0,w,c
  7193   001580  6E10               	movwf	(??i1_memmove+9)^0,c
  7194   001582  0E00               	movlw	0
  7195   001584  200D               	addwfc	(??i1_memmove+6)^0,w,c
  7196   001586  6E11               	movwf	(??i1_memmove+10)^0,c
  7197   001588  0EFF               	movlw	255
  7198   00158A  141D               	andwf	i1memmove@d^0,w,c
  7199   00158C  6E12               	movwf	(??i1_memmove+11)^0,c
  7200   00158E  0EFF               	movlw	255
  7201   001590  141E               	andwf	(i1memmove@d+1)^0,w,c
  7202   001592  6E13               	movwf	(??i1_memmove+12)^0,c
  7203   001594  0E01               	movlw	1
  7204   001596  141F               	andwf	(i1memmove@d+2)^0,w,c
  7205   001598  6E14               	movwf	(??i1_memmove+13)^0,c
  7206   00159A  5012               	movf	(??i1_memmove+11)^0,w,c
  7207   00159C  6E15               	movwf	(??i1_memmove+14)^0,c
  7208   00159E  5013               	movf	(??i1_memmove+12)^0,w,c
  7209   0015A0  6E16               	movwf	(??i1_memmove+15)^0,c
  7210   0015A2  5014               	movf	(??i1_memmove+13)^0,w,c
  7211   0015A4  6E17               	movwf	(??i1_memmove+16)^0,c
  7212   0015A6  6A18               	clrf	(??i1_memmove+17)^0,c
  7213   0015A8  500E               	movf	(??i1_memmove+7)^0,w,c
  7214   0015AA  5C15               	subwf	(??i1_memmove+14)^0,w,c
  7215   0015AC  500F               	movf	(??i1_memmove+8)^0,w,c
  7216   0015AE  5816               	subwfb	(??i1_memmove+15)^0,w,c
  7217   0015B0  5010               	movf	(??i1_memmove+9)^0,w,c
  7218   0015B2  5817               	subwfb	(??i1_memmove+16)^0,w,c
  7219   0015B4  5011               	movf	(??i1_memmove+10)^0,w,c
  7220   0015B6  5818               	subwfb	(??i1_memmove+17)^0,w,c
  7221   0015B8  B0D8               	btfsc	status,0,c
  7222   0015BA  EFE1  F00A         	goto	i1u257_21
  7223   0015BE  EFE3  F00A         	goto	i1u257_20
  7224   0015C2                     i1u257_21:
  7225   0015C2  EF0B  F00B         	goto	i1l2762
  7226   0015C6                     i1u257_20:
  7227   0015C6  5005               	movf	i1memmove@n^0,w,c
  7228   0015C8  261A               	addwf	i1memmove@s^0,f,c
  7229   0015CA  5006               	movf	(i1memmove@n+1)^0,w,c
  7230   0015CC  221B               	addwfc	(i1memmove@s+1)^0,f,c
  7231   0015CE  5005               	movf	i1memmove@n^0,w,c
  7232   0015D0  261D               	addwf	i1memmove@d^0,f,c
  7233   0015D2  5006               	movf	(i1memmove@n+1)^0,w,c
  7234   0015D4  221E               	addwfc	(i1memmove@d+1)^0,f,c
  7235   0015D6                     i1l2754:
  7236   0015D6  061A               	decf	i1memmove@s^0,f,c
  7237   0015D8  A0D8               	btfss	status,0,c
  7238   0015DA  061B               	decf	(i1memmove@s+1)^0,f,c
  7239   0015DC  C01A  FFD9         	movff	i1memmove@s,fsr2l
  7240   0015E0  C01B  FFDA         	movff	i1memmove@s+1,fsr2h
  7241   0015E4  50DF               	movf	indf2,w,c
  7242   0015E6  6E19               	movwf	i1memmove@c^0,c
  7243   0015E8  061D               	decf	i1memmove@d^0,f,c
  7244   0015EA  A0D8               	btfss	status,0,c
  7245   0015EC  061E               	decf	(i1memmove@d+1)^0,f,c
  7246   0015EE  C01D  FFD9         	movff	i1memmove@d,fsr2l
  7247   0015F2  C01E  FFDA         	movff	i1memmove@d+1,fsr2h
  7248   0015F6  C019  FFDF         	movff	i1memmove@c,indf2
  7249   0015FA  0605               	decf	i1memmove@n^0,f,c
  7250   0015FC  A0D8               	btfss	status,0,c
  7251   0015FE  0606               	decf	(i1memmove@n+1)^0,f,c
  7252   001600  5005               	movf	i1memmove@n^0,w,c
  7253   001602  1006               	iorwf	(i1memmove@n+1)^0,w,c
  7254   001604  A4D8               	btfss	status,2,c
  7255   001606  EF07  F00B         	goto	i1u258_21
  7256   00160A  EF09  F00B         	goto	i1u258_20
  7257   00160E                     i1u258_21:
  7258   00160E  EFEB  F00A         	goto	i1l2754
  7259   001612                     i1u258_20:
  7260   001612  EF30  F00B         	goto	i1l1028
  7261   001616                     i1l2762:
  7262   001616  5005               	movf	i1memmove@n^0,w,c
  7263   001618  1006               	iorwf	(i1memmove@n+1)^0,w,c
  7264   00161A  B4D8               	btfsc	status,2,c
  7265   00161C  EF12  F00B         	goto	i1u259_21
  7266   001620  EF14  F00B         	goto	i1u259_20
  7267   001624                     i1u259_21:
  7268   001624  EF30  F00B         	goto	i1l1028
  7269   001628                     i1u259_20:
  7270   001628                     i1l2764:
  7271   001628  C01A  FFD9         	movff	i1memmove@s,fsr2l
  7272   00162C  C01B  FFDA         	movff	i1memmove@s+1,fsr2h
  7273   001630  50DF               	movf	indf2,w,c
  7274   001632  6E19               	movwf	i1memmove@c^0,c
  7275   001634  4A1A               	infsnz	i1memmove@s^0,f,c
  7276   001636  2A1B               	incf	(i1memmove@s+1)^0,f,c
  7277   001638  C01D  FFD9         	movff	i1memmove@d,fsr2l
  7278   00163C  C01E  FFDA         	movff	i1memmove@d+1,fsr2h
  7279   001640  C019  FFDF         	movff	i1memmove@c,indf2
  7280   001644  4A1D               	infsnz	i1memmove@d^0,f,c
  7281   001646  2A1E               	incf	(i1memmove@d+1)^0,f,c
  7282   001648  0605               	decf	i1memmove@n^0,f,c
  7283   00164A  A0D8               	btfss	status,0,c
  7284   00164C  0606               	decf	(i1memmove@n+1)^0,f,c
  7285   00164E  5005               	movf	i1memmove@n^0,w,c
  7286   001650  1006               	iorwf	(i1memmove@n+1)^0,w,c
  7287   001652  A4D8               	btfss	status,2,c
  7288   001654  EF2E  F00B         	goto	i1u260_21
  7289   001658  EF30  F00B         	goto	i1u260_20
  7290   00165C                     i1u260_21:
  7291   00165C  EF14  F00B         	goto	i1l2764
  7292   001660                     i1u260_20:
  7293   001660                     i1l1028:
  7294   001660  0012               	return		;funcret
  7295   001662                     __end_ofi1_memmove:
  7296                           	callstack 0
  7297                           
  7298 ;; *************** function i1_drop_block_from_sky *****************
  7299 ;; Defined at:
  7300 ;;		line 152 in file "./helpers.h"
  7301 ;; Parameters:    Size  Location     Type
  7302 ;;		None
  7303 ;; Auto vars:     Size  Location     Type
  7304 ;;  r               2   24[COMRAM] int 
  7305 ;; Return value:  Size  Location     Type
  7306 ;;                  1    wreg      void 
  7307 ;; Registers used:
  7308 ;;		wreg, fsr1l, fsr1h, fsr2l, fsr2h, status,2, status,0, prodl, prodh, cstack
  7309 ;; Tracked objects:
  7310 ;;		On entry : 0/0
  7311 ;;		On exit  : 0/0
  7312 ;;		Unchanged: 0/0
  7313 ;; Data sizes:     COMRAM   BANK0   BANK1   BANK2   BANK3   BANK4   BANK5
  7314 ;;      Params:         0       0       0       0       0       0       0
  7315 ;;      Locals:         2       0       0       0       0       0       0
  7316 ;;      Temps:          0       0       0       0       0       0       0
  7317 ;;      Totals:         2       0       0       0       0       0       0
  7318 ;;Total ram usage:        2 bytes
  7319 ;; Hardware stack levels used: 1
  7320 ;; Hardware stack levels required when called: 2
  7321 ;; This function calls:
  7322 ;;		i1___awmod
  7323 ;;		i1_rand
  7324 ;;		i1_set_current_block
  7325 ;; This function is called by:
  7326 ;;		i1_generate_garbage
  7327 ;; This function uses a non-reentrant model
  7328 ;;
  7329                           
  7330                           	psect	text37
  7331   001E8E                     __ptext37:
  7332                           	callstack 0
  7333   001E8E                     i1_drop_block_from_sky:
  7334                           	callstack 19
  7335   001E8E                     
  7336                           ;./helpers.h: 153:     int r = rand() % 7;
  7337   001E8E  EC2F  F014         	call	i1_rand	;wreg free
  7338   001E92  C00D  F013         	movff	?i1_rand,i1___awmod@dividend
  7339   001E96  C00E  F014         	movff	?i1_rand+1,i1___awmod@dividend+1
  7340   001E9A  0E00               	movlw	0
  7341   001E9C  6E16               	movwf	(i1___awmod@divisor+1)^0,c
  7342   001E9E  0E07               	movlw	7
  7343   001EA0  6E15               	movwf	i1___awmod@divisor^0,c
  7344   001EA2  EC78  F011         	call	i1___awmod	;wreg free
  7345   001EA6  C013  F019         	movff	?i1___awmod,i1drop_block_from_sky@r
  7346   001EAA  C014  F01A         	movff	?i1___awmod+1,i1drop_block_from_sky@r+1
  7347   001EAE                     
  7348                           ;./helpers.h: 155:     if(r==0) { set_current_block(block_I); current_block_type=I; }
  7349   001EAE  5019               	movf	i1drop_block_from_sky@r^0,w,c
  7350   001EB0  101A               	iorwf	(i1drop_block_from_sky@r+1)^0,w,c
  7351   001EB2  A4D8               	btfss	status,2,c
  7352   001EB4  EF5E  F00F         	goto	i1u250_21
  7353   001EB8  EF60  F00F         	goto	i1u250_20
  7354   001EBC                     i1u250_21:
  7355   001EBC  EF67  F00F         	goto	i1l2704
  7356   001EC0                     i1u250_20:
  7357   001EC0  0E61               	movlw	low _block_I
  7358   001EC2  6E01               	movwf	i1set_current_block@b^0,c
  7359   001EC4  EC88  F013         	call	i1_set_current_block	;wreg free
  7360   001EC8  6A58               	clrf	_current_block_type^0,c
  7361   001ECA  EFC6  F00F         	goto	i1l2738
  7362   001ECE                     i1l2704:
  7363   001ECE  0419               	decf	i1drop_block_from_sky@r^0,w,c
  7364   001ED0  101A               	iorwf	(i1drop_block_from_sky@r+1)^0,w,c
  7365   001ED2  A4D8               	btfss	status,2,c
  7366   001ED4  EF6E  F00F         	goto	i1u251_21
  7367   001ED8  EF70  F00F         	goto	i1u251_20
  7368   001EDC                     i1u251_21:
  7369   001EDC  EF78  F00F         	goto	i1l2710
  7370   001EE0                     i1u251_20:
  7371   001EE0  0ED0               	movlw	low _block_O
  7372   001EE2  6E01               	movwf	i1set_current_block@b^0,c
  7373   001EE4  EC88  F013         	call	i1_set_current_block	;wreg free
  7374   001EE8  0E01               	movlw	1
  7375   001EEA  6E58               	movwf	_current_block_type^0,c
  7376   001EEC  EFC6  F00F         	goto	i1l2738
  7377   001EF0                     i1l2710:
  7378   001EF0  0E02               	movlw	2
  7379   001EF2  1819               	xorwf	i1drop_block_from_sky@r^0,w,c
  7380   001EF4  101A               	iorwf	(i1drop_block_from_sky@r+1)^0,w,c
  7381   001EF6  A4D8               	btfss	status,2,c
  7382   001EF8  EF80  F00F         	goto	i1u252_21
  7383   001EFC  EF82  F00F         	goto	i1u252_20
  7384   001F00                     i1u252_21:
  7385   001F00  EF8A  F00F         	goto	i1l2716
  7386   001F04                     i1u252_20:
  7387   001F04  0EC0               	movlw	low _block_T
  7388   001F06  6E01               	movwf	i1set_current_block@b^0,c
  7389   001F08  EC88  F013         	call	i1_set_current_block	;wreg free
  7390   001F0C  0E02               	movlw	2
  7391   001F0E  6E58               	movwf	_current_block_type^0,c
  7392   001F10  EFC6  F00F         	goto	i1l2738
  7393   001F14                     i1l2716:
  7394   001F14  0E03               	movlw	3
  7395   001F16  1819               	xorwf	i1drop_block_from_sky@r^0,w,c
  7396   001F18  101A               	iorwf	(i1drop_block_from_sky@r+1)^0,w,c
  7397   001F1A  A4D8               	btfss	status,2,c
  7398   001F1C  EF92  F00F         	goto	i1u253_21
  7399   001F20  EF94  F00F         	goto	i1u253_20
  7400   001F24                     i1u253_21:
  7401   001F24  EF9C  F00F         	goto	i1l2722
  7402   001F28                     i1u253_20:
  7403   001F28  0EB0               	movlw	low _block_S
  7404   001F2A  6E01               	movwf	i1set_current_block@b^0,c
  7405   001F2C  EC88  F013         	call	i1_set_current_block	;wreg free
  7406   001F30  0E03               	movlw	3
  7407   001F32  6E58               	movwf	_current_block_type^0,c
  7408   001F34  EFC6  F00F         	goto	i1l2738
  7409   001F38                     i1l2722:
  7410   001F38  0E04               	movlw	4
  7411   001F3A  1819               	xorwf	i1drop_block_from_sky@r^0,w,c
  7412   001F3C  101A               	iorwf	(i1drop_block_from_sky@r+1)^0,w,c
  7413   001F3E  A4D8               	btfss	status,2,c
  7414   001F40  EFA4  F00F         	goto	i1u254_21
  7415   001F44  EFA6  F00F         	goto	i1u254_20
  7416   001F48                     i1u254_21:
  7417   001F48  EFAE  F00F         	goto	i1l2728
  7418   001F4C                     i1u254_20:
  7419   001F4C  0EA0               	movlw	low _block_Z
  7420   001F4E  6E01               	movwf	i1set_current_block@b^0,c
  7421   001F50  EC88  F013         	call	i1_set_current_block	;wreg free
  7422   001F54  0E04               	movlw	4
  7423   001F56  6E58               	movwf	_current_block_type^0,c
  7424   001F58  EFC6  F00F         	goto	i1l2738
  7425   001F5C                     i1l2728:
  7426   001F5C  0E05               	movlw	5
  7427   001F5E  1819               	xorwf	i1drop_block_from_sky@r^0,w,c
  7428   001F60  101A               	iorwf	(i1drop_block_from_sky@r+1)^0,w,c
  7429   001F62  A4D8               	btfss	status,2,c
  7430   001F64  EFB6  F00F         	goto	i1u255_21
  7431   001F68  EFB8  F00F         	goto	i1u255_20
  7432   001F6C                     i1u255_21:
  7433   001F6C  EFC0  F00F         	goto	i1l2734
  7434   001F70                     i1u255_20:
  7435   001F70  0E90               	movlw	low _block_J
  7436   001F72  6E01               	movwf	i1set_current_block@b^0,c
  7437   001F74  EC88  F013         	call	i1_set_current_block	;wreg free
  7438   001F78  0E05               	movlw	5
  7439   001F7A  6E58               	movwf	_current_block_type^0,c
  7440   001F7C  EFC6  F00F         	goto	i1l2738
  7441   001F80                     i1l2734:
  7442   001F80  0E80               	movlw	low _block_L
  7443   001F82  6E01               	movwf	i1set_current_block@b^0,c
  7444   001F84  EC88  F013         	call	i1_set_current_block	;wreg free
  7445   001F88  0E06               	movlw	6
  7446   001F8A  6E58               	movwf	_current_block_type^0,c
  7447   001F8C                     i1l2738:
  7448                           
  7449                           ;./helpers.h: 162:     block_location_x = 2;
  7450   001F8C  0E00               	movlw	0
  7451   001F8E  6E53               	movwf	(_block_location_x+1)^0,c
  7452   001F90  0E02               	movlw	2
  7453   001F92  6E52               	movwf	_block_location_x^0,c
  7454   001F94                     
  7455                           ;./helpers.h: 163:     block_location_y = 2;
  7456   001F94  0E00               	movlw	0
  7457   001F96  6E51               	movwf	(_block_location_y+1)^0,c
  7458   001F98  0E02               	movlw	2
  7459   001F9A  6E50               	movwf	_block_location_y^0,c
  7460   001F9C  0012               	return		;funcret
  7461   001F9E                     __end_ofi1_drop_block_from_sky:
  7462                           	callstack 0
  7463                           
  7464 ;; *************** function i1_set_current_block *****************
  7465 ;; Defined at:
  7466 ;;		line 53 in file "./helpers.h"
  7467 ;; Parameters:    Size  Location     Type
  7468 ;;  b               1    0[COMRAM] PTR _Bool [4]
  7469 ;;		 -> block_L(16), block_J(16), block_Z(16), block_S(16), 
  7470 ;;		 -> block_T(16), block_O(16), block_I(16), 
  7471 ;; Auto vars:     Size  Location     Type
  7472 ;;  j               2    3[COMRAM] int 
  7473 ;;  i               2    1[COMRAM] int 
  7474 ;; Return value:  Size  Location     Type
  7475 ;;                  1    wreg      void 
  7476 ;; Registers used:
  7477 ;;		wreg, fsr1l, fsr1h, fsr2l, fsr2h, status,2, status,0, prodl, prodh
  7478 ;; Tracked objects:
  7479 ;;		On entry : 0/0
  7480 ;;		On exit  : 0/0
  7481 ;;		Unchanged: 0/0
  7482 ;; Data sizes:     COMRAM   BANK0   BANK1   BANK2   BANK3   BANK4   BANK5
  7483 ;;      Params:         1       0       0       0       0       0       0
  7484 ;;      Locals:         4       0       0       0       0       0       0
  7485 ;;      Temps:          0       0       0       0       0       0       0
  7486 ;;      Totals:         5       0       0       0       0       0       0
  7487 ;;Total ram usage:        5 bytes
  7488 ;; Hardware stack levels used: 1
  7489 ;; This function calls:
  7490 ;;		Nothing
  7491 ;; This function is called by:
  7492 ;;		i1_drop_block_from_sky
  7493 ;; This function uses a non-reentrant model
  7494 ;;
  7495                           
  7496                           	psect	text38
  7497   002710                     __ptext38:
  7498                           	callstack 0
  7499   002710                     i1_set_current_block:
  7500                           	callstack 20
  7501   002710                     
  7502                           ;./helpers.h: 54:     for (int i = 0; i < 4; i++) {
  7503   002710  0E00               	movlw	0
  7504   002712  6E03               	movwf	(i1set_current_block@i+1)^0,c
  7505   002714  0E00               	movlw	0
  7506   002716  6E02               	movwf	i1set_current_block@i^0,c
  7507   002718                     i1l2386:
  7508                           
  7509                           ;./helpers.h: 55:         for (int j = 0; j < 4; j++) {
  7510   002718  0E00               	movlw	0
  7511   00271A  6E05               	movwf	(i1set_current_block@j+1)^0,c
  7512   00271C  0E00               	movlw	0
  7513   00271E  6E04               	movwf	i1set_current_block@j^0,c
  7514   002720                     i1l2392:
  7515                           
  7516                           ;./helpers.h: 56:             current_block[i][j] = b[i][j];
  7517   002720  5002               	movf	i1set_current_block@i^0,w,c
  7518   002722  0D04               	mullw	4
  7519   002724  5001               	movf	i1set_current_block@b^0,w,c
  7520   002726  24F3               	addwf	243,w,c
  7521   002728  2404               	addwf	i1set_current_block@j^0,w,c
  7522   00272A  6ED9               	movwf	fsr2l,c
  7523   00272C  6ADA               	clrf	fsr2h,c
  7524   00272E  5002               	movf	i1set_current_block@i^0,w,c
  7525   002730  0D04               	mullw	4
  7526   002732  50F3               	movf	243,w,c
  7527   002734  0F3E               	addlw	low _current_block
  7528   002736  2404               	addwf	i1set_current_block@j^0,w,c
  7529   002738  6EE1               	movwf	fsr1l,c
  7530   00273A  6AE2               	clrf	fsr1h,c
  7531   00273C  CFDF FFE7          	movff	indf2,indf1
  7532   002740                     
  7533                           ;./helpers.h: 57:         }
  7534   002740  4A04               	infsnz	i1set_current_block@j^0,f,c
  7535   002742  2A05               	incf	(i1set_current_block@j+1)^0,f,c
  7536   002744  BE05               	btfsc	(i1set_current_block@j+1)^0,7,c
  7537   002746  EFAE  F013         	goto	i1u204_21
  7538   00274A  5005               	movf	(i1set_current_block@j+1)^0,w,c
  7539   00274C  E109               	bnz	i1u204_20
  7540   00274E  0E04               	movlw	4
  7541   002750  5C04               	subwf	i1set_current_block@j^0,w,c
  7542   002752  A0D8               	btfss	status,0,c
  7543   002754  EFAE  F013         	goto	i1u204_21
  7544   002758  EFB0  F013         	goto	i1u204_20
  7545   00275C                     i1u204_21:
  7546   00275C  EF90  F013         	goto	i1l2392
  7547   002760                     i1u204_20:
  7548   002760                     
  7549                           ;./helpers.h: 58:     }
  7550   002760  4A02               	infsnz	i1set_current_block@i^0,f,c
  7551   002762  2A03               	incf	(i1set_current_block@i+1)^0,f,c
  7552   002764  BE03               	btfsc	(i1set_current_block@i+1)^0,7,c
  7553   002766  EFBE  F013         	goto	i1u205_21
  7554   00276A  5003               	movf	(i1set_current_block@i+1)^0,w,c
  7555   00276C  E109               	bnz	i1u205_20
  7556   00276E  0E04               	movlw	4
  7557   002770  5C02               	subwf	i1set_current_block@i^0,w,c
  7558   002772  A0D8               	btfss	status,0,c
  7559   002774  EFBE  F013         	goto	i1u205_21
  7560   002778  EFC0  F013         	goto	i1u205_20
  7561   00277C                     i1u205_21:
  7562   00277C  EF8C  F013         	goto	i1l2386
  7563   002780                     i1u205_20:
  7564   002780  0012               	return		;funcret
  7565   002782                     __end_ofi1_set_current_block:
  7566                           	callstack 0
  7567                           
  7568 ;; *************** function i1_rand *****************
  7569 ;; Defined at:
  7570 ;;		line 11 in file "C:\Program Files\Microchip\xc8\v3.00\pic\sources\c99\common\rand.c"
  7571 ;; Parameters:    Size  Location     Type
  7572 ;;		None
  7573 ;; Auto vars:     Size  Location     Type
  7574 ;;		None
  7575 ;; Return value:  Size  Location     Type
  7576 ;;                  2   12[COMRAM] int 
  7577 ;; Registers used:
  7578 ;;		wreg, status,2, status,0, cstack
  7579 ;; Tracked objects:
  7580 ;;		On entry : 0/0
  7581 ;;		On exit  : 0/0
  7582 ;;		Unchanged: 0/0
  7583 ;; Data sizes:     COMRAM   BANK0   BANK1   BANK2   BANK3   BANK4   BANK5
  7584 ;;      Params:         2       0       0       0       0       0       0
  7585 ;;      Locals:         0       0       0       0       0       0       0
  7586 ;;      Temps:          4       0       0       0       0       0       0
  7587 ;;      Totals:         6       0       0       0       0       0       0
  7588 ;;Total ram usage:        6 bytes
  7589 ;; Hardware stack levels used: 1
  7590 ;; Hardware stack levels required when called: 1
  7591 ;; This function calls:
  7592 ;;		i1___lmul
  7593 ;; This function is called by:
  7594 ;;		i1_drop_block_from_sky
  7595 ;; This function uses a non-reentrant model
  7596 ;;
  7597                           
  7598                           	psect	text39
  7599   00285E                     __ptext39:
  7600                           	callstack 0
  7601   00285E                     i1_rand:
  7602                           	callstack 19
  7603   00285E  C05B  F001         	movff	_seed,i1___lmul@multiplier
  7604   002862  C05C  F002         	movff	_seed+1,i1___lmul@multiplier+1
  7605   002866  C05D  F003         	movff	_seed+2,i1___lmul@multiplier+2
  7606   00286A  C05E  F004         	movff	_seed+3,i1___lmul@multiplier+3
  7607   00286E  0E2D               	movlw	45
  7608   002870  6E05               	movwf	i1___lmul@multiplicand^0,c
  7609   002872  0E7F               	movlw	127
  7610   002874  6E06               	movwf	(i1___lmul@multiplicand+1)^0,c
  7611   002876  0E95               	movlw	149
  7612   002878  6E07               	movwf	(i1___lmul@multiplicand+2)^0,c
  7613   00287A  0E4C               	movlw	76
  7614   00287C  6E08               	movwf	(i1___lmul@multiplicand+3)^0,c
  7615   00287E  EC65  F014         	call	i1___lmul	;wreg free
  7616   002882  0E01               	movlw	1
  7617   002884  2401               	addwf	?i1___lmul^0,w,c
  7618   002886  6E5B               	movwf	_seed^0,c
  7619   002888  0E00               	movlw	0
  7620   00288A  2002               	addwfc	(?i1___lmul+1)^0,w,c
  7621   00288C  6E5C               	movwf	(_seed+1)^0,c
  7622   00288E  0E00               	movlw	0
  7623   002890  2003               	addwfc	(?i1___lmul+2)^0,w,c
  7624   002892  6E5D               	movwf	(_seed+2)^0,c
  7625   002894  0E00               	movlw	0
  7626   002896  2004               	addwfc	(?i1___lmul+3)^0,w,c
  7627   002898  6E5E               	movwf	(_seed+3)^0,c
  7628   00289A  C05B  F00F         	movff	_seed,??i1_rand
  7629   00289E  C05C  F010         	movff	_seed+1,??i1_rand+1
  7630   0028A2  C05D  F011         	movff	_seed+2,??i1_rand+2
  7631   0028A6  C05E  F012         	movff	_seed+3,??i1_rand+3
  7632   0028AA  0E12               	movlw	18
  7633   0028AC  EF5D  F014         	goto	i1u212_20
  7634   0028B0                     i1u212_25:
  7635   0028B0  90D8               	bcf	status,0,c
  7636   0028B2  3212               	rrcf	(??i1_rand+3)^0,f,c
  7637   0028B4  3211               	rrcf	(??i1_rand+2)^0,f,c
  7638   0028B6  3210               	rrcf	(??i1_rand+1)^0,f,c
  7639   0028B8  320F               	rrcf	??i1_rand^0,f,c
  7640   0028BA                     i1u212_20:
  7641   0028BA  2EE8               	decfsz	wreg,f,c
  7642   0028BC  EF58  F014         	goto	i1u212_25
  7643   0028C0  C00F  F00D         	movff	??i1_rand,?i1_rand
  7644   0028C4  C010  F00E         	movff	??i1_rand+1,?i1_rand+1
  7645   0028C8  0012               	return		;funcret
  7646   0028CA                     __end_ofi1_rand:
  7647                           	callstack 0
  7648                           
  7649 ;; *************** function i1___lmul *****************
  7650 ;; Defined at:
  7651 ;;		line 15 in file "C:\Program Files\Microchip\xc8\v3.00\pic\sources\c99\common\Umul32.c"
  7652 ;; Parameters:    Size  Location     Type
  7653 ;;  multiplier      4    0[COMRAM] unsigned long 
  7654 ;;  multiplicand    4    4[COMRAM] unsigned long 
  7655 ;; Auto vars:     Size  Location     Type
  7656 ;;  product         4    8[COMRAM] unsigned long 
  7657 ;; Return value:  Size  Location     Type
  7658 ;;                  4    0[COMRAM] unsigned long 
  7659 ;; Registers used:
  7660 ;;		wreg, status,2, status,0
  7661 ;; Tracked objects:
  7662 ;;		On entry : 0/0
  7663 ;;		On exit  : 0/0
  7664 ;;		Unchanged: 0/0
  7665 ;; Data sizes:     COMRAM   BANK0   BANK1   BANK2   BANK3   BANK4   BANK5
  7666 ;;      Params:         8       0       0       0       0       0       0
  7667 ;;      Locals:         4       0       0       0       0       0       0
  7668 ;;      Temps:          0       0       0       0       0       0       0
  7669 ;;      Totals:        12       0       0       0       0       0       0
  7670 ;;Total ram usage:       12 bytes
  7671 ;; Hardware stack levels used: 1
  7672 ;; This function calls:
  7673 ;;		Nothing
  7674 ;; This function is called by:
  7675 ;;		i1_rand
  7676 ;; This function uses a non-reentrant model
  7677 ;;
  7678                           
  7679                           	psect	text40
  7680   0028CA                     __ptext40:
  7681                           	callstack 0
  7682   0028CA                     i1___lmul:
  7683                           	callstack 19
  7684   0028CA  0E00               	movlw	0
  7685   0028CC  6E09               	movwf	i1___lmul@product^0,c
  7686   0028CE  0E00               	movlw	0
  7687   0028D0  6E0A               	movwf	(i1___lmul@product+1)^0,c
  7688   0028D2  0E00               	movlw	0
  7689   0028D4  6E0B               	movwf	(i1___lmul@product+2)^0,c
  7690   0028D6  0E00               	movlw	0
  7691   0028D8  6E0C               	movwf	(i1___lmul@product+3)^0,c
  7692   0028DA                     i1l2340:
  7693   0028DA  A001               	btfss	i1___lmul@multiplier^0,0,c
  7694   0028DC  EF72  F014         	goto	i1u198_21
  7695   0028E0  EF74  F014         	goto	i1u198_20
  7696   0028E4                     i1u198_21:
  7697   0028E4  EF7C  F014         	goto	i1l2344
  7698   0028E8                     i1u198_20:
  7699   0028E8  5005               	movf	i1___lmul@multiplicand^0,w,c
  7700   0028EA  2609               	addwf	i1___lmul@product^0,f,c
  7701   0028EC  5006               	movf	(i1___lmul@multiplicand+1)^0,w,c
  7702   0028EE  220A               	addwfc	(i1___lmul@product+1)^0,f,c
  7703   0028F0  5007               	movf	(i1___lmul@multiplicand+2)^0,w,c
  7704   0028F2  220B               	addwfc	(i1___lmul@product+2)^0,f,c
  7705   0028F4  5008               	movf	(i1___lmul@multiplicand+3)^0,w,c
  7706   0028F6  220C               	addwfc	(i1___lmul@product+3)^0,f,c
  7707   0028F8                     i1l2344:
  7708   0028F8  90D8               	bcf	status,0,c
  7709   0028FA  3605               	rlcf	i1___lmul@multiplicand^0,f,c
  7710   0028FC  3606               	rlcf	(i1___lmul@multiplicand+1)^0,f,c
  7711   0028FE  3607               	rlcf	(i1___lmul@multiplicand+2)^0,f,c
  7712   002900  3608               	rlcf	(i1___lmul@multiplicand+3)^0,f,c
  7713   002902  90D8               	bcf	status,0,c
  7714   002904  3204               	rrcf	(i1___lmul@multiplier+3)^0,f,c
  7715   002906  3203               	rrcf	(i1___lmul@multiplier+2)^0,f,c
  7716   002908  3202               	rrcf	(i1___lmul@multiplier+1)^0,f,c
  7717   00290A  3201               	rrcf	i1___lmul@multiplier^0,f,c
  7718   00290C  5001               	movf	i1___lmul@multiplier^0,w,c
  7719   00290E  1002               	iorwf	(i1___lmul@multiplier+1)^0,w,c
  7720   002910  1003               	iorwf	(i1___lmul@multiplier+2)^0,w,c
  7721   002912  1004               	iorwf	(i1___lmul@multiplier+3)^0,w,c
  7722   002914  A4D8               	btfss	status,2,c
  7723   002916  EF8F  F014         	goto	i1u199_21
  7724   00291A  EF91  F014         	goto	i1u199_20
  7725   00291E                     i1u199_21:
  7726   00291E  EF6D  F014         	goto	i1l2340
  7727   002922                     i1u199_20:
  7728   002922  C009  F001         	movff	i1___lmul@product,?i1___lmul
  7729   002926  C00A  F002         	movff	i1___lmul@product+1,?i1___lmul+1
  7730   00292A  C00B  F003         	movff	i1___lmul@product+2,?i1___lmul+2
  7731   00292E  C00C  F004         	movff	i1___lmul@product+3,?i1___lmul+3
  7732   002932  0012               	return		;funcret
  7733   002934                     __end_ofi1___lmul:
  7734                           	callstack 0
  7735                           
  7736 ;; *************** function i1_current_block_is_in_illegal_position *****************
  7737 ;; Defined at:
  7738 ;;		line 91 in file "./helpers.h"
  7739 ;; Parameters:    Size  Location     Type
  7740 ;;		None
  7741 ;; Auto vars:     Size  Location     Type
  7742 ;;  j               2   10[COMRAM] int 
  7743 ;;  i               2    8[COMRAM] int 
  7744 ;;  y               2    6[COMRAM] int 
  7745 ;;  x               2    4[COMRAM] int 
  7746 ;; Return value:  Size  Location     Type
  7747 ;;                  1    wreg      _Bool 
  7748 ;; Registers used:
  7749 ;;		wreg, fsr2l, fsr2h, status,2, status,0, prodl, prodh
  7750 ;; Tracked objects:
  7751 ;;		On entry : 0/0
  7752 ;;		On exit  : 0/0
  7753 ;;		Unchanged: 0/0
  7754 ;; Data sizes:     COMRAM   BANK0   BANK1   BANK2   BANK3   BANK4   BANK5
  7755 ;;      Params:         0       0       0       0       0       0       0
  7756 ;;      Locals:         8       0       0       0       0       0       0
  7757 ;;      Temps:          4       0       0       0       0       0       0
  7758 ;;      Totals:        12       0       0       0       0       0       0
  7759 ;;Total ram usage:       12 bytes
  7760 ;; Hardware stack levels used: 1
  7761 ;; This function calls:
  7762 ;;		Nothing
  7763 ;; This function is called by:
  7764 ;;		i1_generate_garbage
  7765 ;; This function uses a non-reentrant model
  7766 ;;
  7767                           
  7768                           	psect	text41
  7769   001900                     __ptext41:
  7770                           	callstack 0
  7771   001900                     i1_current_block_is_in_illegal_position:
  7772                           	callstack 21
  7773   001900                     
  7774                           ;./helpers.h: 92:     for (int i = 0; i < 4; i++) {
  7775   001900  0E00               	movlw	0
  7776   001902  6E0A               	movwf	(i1current_block_is_in_illegal_position@i+1)^0,c
  7777   001904  0E00               	movlw	0
  7778   001906  6E09               	movwf	i1current_block_is_in_illegal_position@i^0,c
  7779   001908                     i1l2536:
  7780                           
  7781                           ;./helpers.h: 93:         for (int j = 0; j < 4; j++) {
  7782   001908  0E00               	movlw	0
  7783   00190A  6E0C               	movwf	(i1current_block_is_in_illegal_position@j+1)^0,c
  7784   00190C  0E00               	movlw	0
  7785   00190E  6E0B               	movwf	i1current_block_is_in_illegal_position@j^0,c
  7786   001910                     i1l2542:
  7787                           
  7788                           ;./helpers.h: 94:             if (current_block[i][j]) {
  7789   001910  5009               	movf	i1current_block_is_in_illegal_position@i^0,w,c
  7790   001912  0D04               	mullw	4
  7791   001914  50F3               	movf	243,w,c
  7792   001916  0F3E               	addlw	low _current_block
  7793   001918  240B               	addwf	i1current_block_is_in_illegal_position@j^0,w,c
  7794   00191A  6ED9               	movwf	fsr2l,c
  7795   00191C  6ADA               	clrf	fsr2h,c
  7796   00191E  50DF               	movf	indf2,w,c
  7797   001920  B4D8               	btfsc	status,2,c
  7798   001922  EF95  F00C         	goto	i1u224_21
  7799   001926  EF97  F00C         	goto	i1u224_20
  7800   00192A                     i1u224_21:
  7801   00192A  EFFA  F00C         	goto	i1l2562
  7802   00192E                     i1u224_20:
  7803   00192E                     
  7804                           ;./helpers.h: 95:                 int x = block_location_x + j;
  7805   00192E  500B               	movf	i1current_block_is_in_illegal_position@j^0,w,c
  7806   001930  2452               	addwf	_block_location_x^0,w,c
  7807   001932  6E05               	movwf	i1current_block_is_in_illegal_position@x^0,c
  7808   001934  500C               	movf	(i1current_block_is_in_illegal_position@j+1)^0,w,c
  7809   001936  2053               	addwfc	(_block_location_x+1)^0,w,c
  7810   001938  6E06               	movwf	(i1current_block_is_in_illegal_position@x+1)^0,c
  7811                           
  7812                           ;./helpers.h: 96:                 int y = block_location_y + i;
  7813   00193A  5009               	movf	i1current_block_is_in_illegal_position@i^0,w,c
  7814   00193C  2450               	addwf	_block_location_y^0,w,c
  7815   00193E  6E07               	movwf	i1current_block_is_in_illegal_position@y^0,c
  7816   001940  500A               	movf	(i1current_block_is_in_illegal_position@i+1)^0,w,c
  7817   001942  2051               	addwfc	(_block_location_y+1)^0,w,c
  7818   001944  6E08               	movwf	(i1current_block_is_in_illegal_position@y+1)^0,c
  7819                           
  7820                           ;./helpers.h: 97:                 if (x < 0 || x >= 8 || y < 2 || y >= 16) return 1;
  7821   001946  BE06               	btfsc	(i1current_block_is_in_illegal_position@x+1)^0,7,c
  7822   001948  EFA8  F00C         	goto	i1u225_21
  7823   00194C  EFAA  F00C         	goto	i1u225_20
  7824   001950                     i1u225_21:
  7825   001950  EFD4  F00C         	goto	i1l2552
  7826   001954                     i1u225_20:
  7827   001954  BE06               	btfsc	(i1current_block_is_in_illegal_position@x+1)^0,7,c
  7828   001956  EFB8  F00C         	goto	i1u226_20
  7829   00195A  5006               	movf	(i1current_block_is_in_illegal_position@x+1)^0,w,c
  7830   00195C  E107               	bnz	i1u226_21
  7831   00195E  0E08               	movlw	8
  7832   001960  5C05               	subwf	i1current_block_is_in_illegal_position@x^0,w,c
  7833   001962  B0D8               	btfsc	status,0,c
  7834   001964  EFB6  F00C         	goto	i1u226_21
  7835   001968  EFB8  F00C         	goto	i1u226_20
  7836   00196C                     i1u226_21:
  7837   00196C  EFD4  F00C         	goto	i1l2552
  7838   001970                     i1u226_20:
  7839   001970  BE08               	btfsc	(i1current_block_is_in_illegal_position@y+1)^0,7,c
  7840   001972  EFC4  F00C         	goto	i1u227_21
  7841   001976  5008               	movf	(i1current_block_is_in_illegal_position@y+1)^0,w,c
  7842   001978  E109               	bnz	i1u227_20
  7843   00197A  0E02               	movlw	2
  7844   00197C  5C07               	subwf	i1current_block_is_in_illegal_position@y^0,w,c
  7845   00197E  A0D8               	btfss	status,0,c
  7846   001980  EFC4  F00C         	goto	i1u227_21
  7847   001984  EFC6  F00C         	goto	i1u227_20
  7848   001988                     i1u227_21:
  7849   001988  EFD4  F00C         	goto	i1l2552
  7850   00198C                     i1u227_20:
  7851   00198C  BE08               	btfsc	(i1current_block_is_in_illegal_position@y+1)^0,7,c
  7852   00198E  EFD2  F00C         	goto	i1u228_21
  7853   001992  5008               	movf	(i1current_block_is_in_illegal_position@y+1)^0,w,c
  7854   001994  E109               	bnz	i1u228_20
  7855   001996  0E10               	movlw	16
  7856   001998  5C07               	subwf	i1current_block_is_in_illegal_position@y^0,w,c
  7857   00199A  A0D8               	btfss	status,0,c
  7858   00199C  EFD2  F00C         	goto	i1u228_21
  7859   0019A0  EFD4  F00C         	goto	i1u228_20
  7860   0019A4                     i1u228_21:
  7861   0019A4  EFD7  F00C         	goto	i1l2556
  7862   0019A8                     i1u228_20:
  7863   0019A8                     i1l2552:
  7864   0019A8  0E01               	movlw	1
  7865   0019AA  EF1B  F00D         	goto	i1l219
  7866   0019AE                     i1l2556:
  7867                           
  7868                           ;./helpers.h: 98:                 if (display_matrix[y][x]) return 1;
  7869   0019AE  C007  F001         	movff	i1current_block_is_in_illegal_position@y,??i1_current_block_is_in_illegal_positio
      +                          n
  7870   0019B2  C008  F002         	movff	i1current_block_is_in_illegal_position@y+1,??i1_current_block_is_in_illegal_posit
      +                          ion+1
  7871   0019B6  90D8               	bcf	status,0,c
  7872   0019B8  3601               	rlcf	??i1_current_block_is_in_illegal_position^0,f,c
  7873   0019BA  3602               	rlcf	(??i1_current_block_is_in_illegal_position+1)^0,f,c
  7874   0019BC  90D8               	bcf	status,0,c
  7875   0019BE  3601               	rlcf	??i1_current_block_is_in_illegal_position^0,f,c
  7876   0019C0  3602               	rlcf	(??i1_current_block_is_in_illegal_position+1)^0,f,c
  7877   0019C2  90D8               	bcf	status,0,c
  7878   0019C4  3601               	rlcf	??i1_current_block_is_in_illegal_position^0,f,c
  7879   0019C6  3602               	rlcf	(??i1_current_block_is_in_illegal_position+1)^0,f,c
  7880   0019C8  0E10               	movlw	low _display_matrix
  7881   0019CA  2401               	addwf	??i1_current_block_is_in_illegal_position^0,w,c
  7882   0019CC  6E03               	movwf	(??i1_current_block_is_in_illegal_position+2)^0,c
  7883   0019CE  0E01               	movlw	high _display_matrix
  7884   0019D0  2002               	addwfc	(??i1_current_block_is_in_illegal_position+1)^0,w,c
  7885   0019D2  6E04               	movwf	(??i1_current_block_is_in_illegal_position+3)^0,c
  7886   0019D4  5005               	movf	i1current_block_is_in_illegal_position@x^0,w,c
  7887   0019D6  2403               	addwf	(??i1_current_block_is_in_illegal_position+2)^0,w,c
  7888   0019D8  6ED9               	movwf	fsr2l,c
  7889   0019DA  5006               	movf	(i1current_block_is_in_illegal_position@x+1)^0,w,c
  7890   0019DC  2004               	addwfc	(??i1_current_block_is_in_illegal_position+3)^0,w,c
  7891   0019DE  6EDA               	movwf	fsr2h,c
  7892   0019E0  50DF               	movf	indf2,w,c
  7893   0019E2  B4D8               	btfsc	status,2,c
  7894   0019E4  EFF6  F00C         	goto	i1u229_21
  7895   0019E8  EFF8  F00C         	goto	i1u229_20
  7896   0019EC                     i1u229_21:
  7897   0019EC  EFFA  F00C         	goto	i1l2562
  7898   0019F0                     i1u229_20:
  7899   0019F0  EFD4  F00C         	goto	i1l2552
  7900   0019F4                     i1l2562:
  7901                           
  7902                           ;./helpers.h: 100:         }
  7903   0019F4  4A0B               	infsnz	i1current_block_is_in_illegal_position@j^0,f,c
  7904   0019F6  2A0C               	incf	(i1current_block_is_in_illegal_position@j+1)^0,f,c
  7905   0019F8  BE0C               	btfsc	(i1current_block_is_in_illegal_position@j+1)^0,7,c
  7906   0019FA  EF08  F00D         	goto	i1u230_21
  7907   0019FE  500C               	movf	(i1current_block_is_in_illegal_position@j+1)^0,w,c
  7908   001A00  E109               	bnz	i1u230_20
  7909   001A02  0E04               	movlw	4
  7910   001A04  5C0B               	subwf	i1current_block_is_in_illegal_position@j^0,w,c
  7911   001A06  A0D8               	btfss	status,0,c
  7912   001A08  EF08  F00D         	goto	i1u230_21
  7913   001A0C  EF0A  F00D         	goto	i1u230_20
  7914   001A10                     i1u230_21:
  7915   001A10  EF88  F00C         	goto	i1l2542
  7916   001A14                     i1u230_20:
  7917   001A14                     
  7918                           ;./helpers.h: 101:     }
  7919   001A14  4A09               	infsnz	i1current_block_is_in_illegal_position@i^0,f,c
  7920   001A16  2A0A               	incf	(i1current_block_is_in_illegal_position@i+1)^0,f,c
  7921   001A18  BE0A               	btfsc	(i1current_block_is_in_illegal_position@i+1)^0,7,c
  7922   001A1A  EF18  F00D         	goto	i1u231_21
  7923   001A1E  500A               	movf	(i1current_block_is_in_illegal_position@i+1)^0,w,c
  7924   001A20  E109               	bnz	i1u231_20
  7925   001A22  0E04               	movlw	4
  7926   001A24  5C09               	subwf	i1current_block_is_in_illegal_position@i^0,w,c
  7927   001A26  A0D8               	btfss	status,0,c
  7928   001A28  EF18  F00D         	goto	i1u231_21
  7929   001A2C  EF1A  F00D         	goto	i1u231_20
  7930   001A30                     i1u231_21:
  7931   001A30  EF84  F00C         	goto	i1l2536
  7932   001A34                     i1u231_20:
  7933   001A34                     
  7934                           ;./helpers.h: 102:     return 0;
  7935   001A34  0E00               	movlw	0
  7936   001A36                     i1l219:
  7937   001A36  0012               	return		;funcret
  7938   001A38                     __end_ofi1_current_block_is_in_illegal_position:
  7939                           	callstack 0
  7940                           
  7941 ;; *************** function i1_check_for_full_rows *****************
  7942 ;; Defined at:
  7943 ;;		line 119 in file "./helpers.h"
  7944 ;; Parameters:    Size  Location     Type
  7945 ;;		None
  7946 ;; Auto vars:     Size  Location     Type
  7947 ;;  j               2   41[COMRAM] int 
  7948 ;;  i               2   39[COMRAM] int 
  7949 ;;  j               2   37[COMRAM] int 
  7950 ;;  n               2   35[COMRAM] int 
  7951 ;;  j               2   33[COMRAM] int 
  7952 ;;  row_is_full     1   32[COMRAM] _Bool 
  7953 ;; Return value:  Size  Location     Type
  7954 ;;                  1    wreg      void 
  7955 ;; Registers used:
  7956 ;;		wreg, fsr1l, fsr1h, fsr2l, fsr2h, status,2, status,0, cstack
  7957 ;; Tracked objects:
  7958 ;;		On entry : 0/0
  7959 ;;		On exit  : 0/0
  7960 ;;		Unchanged: 0/0
  7961 ;; Data sizes:     COMRAM   BANK0   BANK1   BANK2   BANK3   BANK4   BANK5
  7962 ;;      Params:         0       0       0       0       0       0       0
  7963 ;;      Locals:        11       0       0       0       0       0       0
  7964 ;;      Temps:          8       0       0       0       0       0       0
  7965 ;;      Totals:        19       0       0       0       0       0       0
  7966 ;;Total ram usage:       19 bytes
  7967 ;; Hardware stack levels used: 1
  7968 ;; Hardware stack levels required when called: 1
  7969 ;; This function calls:
  7970 ;;		i1___awmod
  7971 ;;		i1_update_score
  7972 ;; This function is called by:
  7973 ;;		i1_generate_garbage
  7974 ;; This function uses a non-reentrant model
  7975 ;;
  7976                           
  7977                           	psect	text42
  7978   000A28                     __ptext42:
  7979                           	callstack 0
  7980   000A28                     i1_check_for_full_rows:
  7981                           	callstack 20
  7982   000A28                     
  7983                           ;./helpers.h: 120:     for (int i = 2; i < 16; i++) {
  7984   000A28  0E00               	movlw	0
  7985   000A2A  6E29               	movwf	(i1check_for_full_rows@i+1)^0,c
  7986   000A2C  0E02               	movlw	2
  7987   000A2E  6E28               	movwf	i1check_for_full_rows@i^0,c
  7988   000A30                     i1l2612:
  7989                           
  7990                           ;./helpers.h: 121:         _Bool row_is_full = 1;
  7991   000A30  0E01               	movlw	1
  7992   000A32  6E21               	movwf	i1check_for_full_rows@row_is_full^0,c
  7993                           
  7994                           ;./helpers.h: 122:         for (int j = 0; j < 8; j++) {
  7995   000A34  0E00               	movlw	0
  7996   000A36  6E23               	movwf	(i1check_for_full_rows@j+1)^0,c
  7997   000A38  0E00               	movlw	0
  7998   000A3A  6E22               	movwf	i1check_for_full_rows@j^0,c
  7999   000A3C                     i1l2618:
  8000                           
  8001                           ;./helpers.h: 123:             if (!display_matrix[i][j]) { row_is_full = 0; break; }
  8002   000A3C  C028  F019         	movff	i1check_for_full_rows@i,??i1_check_for_full_rows
  8003   000A40  C029  F01A         	movff	i1check_for_full_rows@i+1,??i1_check_for_full_rows+1
  8004   000A44  90D8               	bcf	status,0,c
  8005   000A46  3619               	rlcf	??i1_check_for_full_rows^0,f,c
  8006   000A48  361A               	rlcf	(??i1_check_for_full_rows+1)^0,f,c
  8007   000A4A  90D8               	bcf	status,0,c
  8008   000A4C  3619               	rlcf	??i1_check_for_full_rows^0,f,c
  8009   000A4E  361A               	rlcf	(??i1_check_for_full_rows+1)^0,f,c
  8010   000A50  90D8               	bcf	status,0,c
  8011   000A52  3619               	rlcf	??i1_check_for_full_rows^0,f,c
  8012   000A54  361A               	rlcf	(??i1_check_for_full_rows+1)^0,f,c
  8013   000A56  0E10               	movlw	low _display_matrix
  8014   000A58  2419               	addwf	??i1_check_for_full_rows^0,w,c
  8015   000A5A  6E1B               	movwf	(??i1_check_for_full_rows+2)^0,c
  8016   000A5C  0E01               	movlw	high _display_matrix
  8017   000A5E  201A               	addwfc	(??i1_check_for_full_rows+1)^0,w,c
  8018   000A60  6E1C               	movwf	(??i1_check_for_full_rows+3)^0,c
  8019   000A62  5022               	movf	i1check_for_full_rows@j^0,w,c
  8020   000A64  241B               	addwf	(??i1_check_for_full_rows+2)^0,w,c
  8021   000A66  6ED9               	movwf	fsr2l,c
  8022   000A68  5023               	movf	(i1check_for_full_rows@j+1)^0,w,c
  8023   000A6A  201C               	addwfc	(??i1_check_for_full_rows+3)^0,w,c
  8024   000A6C  6EDA               	movwf	fsr2h,c
  8025   000A6E  50DF               	movf	indf2,w,c
  8026   000A70  A4D8               	btfss	status,2,c
  8027   000A72  EF3D  F005         	goto	i1u239_21
  8028   000A76  EF3F  F005         	goto	i1u239_20
  8029   000A7A                     i1u239_21:
  8030   000A7A  EF42  F005         	goto	i1l2622
  8031   000A7E                     i1u239_20:
  8032   000A7E  6A21               	clrf	i1check_for_full_rows@row_is_full^0,c
  8033   000A80  EF52  F005         	goto	i1l2626
  8034   000A84                     i1l2622:
  8035                           
  8036                           ;./helpers.h: 124:         }
  8037   000A84  4A22               	infsnz	i1check_for_full_rows@j^0,f,c
  8038   000A86  2A23               	incf	(i1check_for_full_rows@j+1)^0,f,c
  8039   000A88  BE23               	btfsc	(i1check_for_full_rows@j+1)^0,7,c
  8040   000A8A  EF50  F005         	goto	i1u240_21
  8041   000A8E  5023               	movf	(i1check_for_full_rows@j+1)^0,w,c
  8042   000A90  E109               	bnz	i1u240_20
  8043   000A92  0E08               	movlw	8
  8044   000A94  5C22               	subwf	i1check_for_full_rows@j^0,w,c
  8045   000A96  A0D8               	btfss	status,0,c
  8046   000A98  EF50  F005         	goto	i1u240_21
  8047   000A9C  EF52  F005         	goto	i1u240_20
  8048   000AA0                     i1u240_21:
  8049   000AA0  EF1E  F005         	goto	i1l2618
  8050   000AA4                     i1u240_20:
  8051   000AA4                     i1l2626:
  8052                           
  8053                           ;./helpers.h: 125:         if (row_is_full) {
  8054   000AA4  5021               	movf	i1check_for_full_rows@row_is_full^0,w,c
  8055   000AA6  B4D8               	btfsc	status,2,c
  8056   000AA8  EF58  F005         	goto	i1u241_21
  8057   000AAC  EF5A  F005         	goto	i1u241_20
  8058   000AB0                     i1u241_21:
  8059   000AB0  EFFB  F005         	goto	i1l2668
  8060   000AB4                     i1u241_20:
  8061   000AB4                     
  8062                           ;./helpers.h: 126:             int n = i;
  8063   000AB4  C028  F024         	movff	i1check_for_full_rows@i,i1check_for_full_rows@n
  8064   000AB8  C029  F025         	movff	i1check_for_full_rows@i+1,i1check_for_full_rows@n+1
  8065                           
  8066                           ;./helpers.h: 127:             while (n - 1 >= 2) {
  8067   000ABC  EFAB  F005         	goto	i1l2644
  8068   000AC0                     i1l2630:
  8069                           
  8070                           ;./helpers.h: 128:                 for (int j = 0; j < 8; j++) display_matrix[n][j] = di
      +                          splay_matrix[n - 1][j];
  8071   000AC0  0E00               	movlw	0
  8072   000AC2  6E2B               	movwf	(i1check_for_full_rows@j_943+1)^0,c
  8073   000AC4  0E00               	movlw	0
  8074   000AC6  6E2A               	movwf	i1check_for_full_rows@j_943^0,c
  8075   000AC8                     i1l2636:
  8076   000AC8  C024  F019         	movff	i1check_for_full_rows@n,??i1_check_for_full_rows
  8077   000ACC  C025  F01A         	movff	i1check_for_full_rows@n+1,??i1_check_for_full_rows+1
  8078   000AD0  90D8               	bcf	status,0,c
  8079   000AD2  3619               	rlcf	??i1_check_for_full_rows^0,f,c
  8080   000AD4  361A               	rlcf	(??i1_check_for_full_rows+1)^0,f,c
  8081   000AD6  90D8               	bcf	status,0,c
  8082   000AD8  3619               	rlcf	??i1_check_for_full_rows^0,f,c
  8083   000ADA  361A               	rlcf	(??i1_check_for_full_rows+1)^0,f,c
  8084   000ADC  90D8               	bcf	status,0,c
  8085   000ADE  3619               	rlcf	??i1_check_for_full_rows^0,f,c
  8086   000AE0  361A               	rlcf	(??i1_check_for_full_rows+1)^0,f,c
  8087   000AE2  0E08               	movlw	low (_display_matrix+65528)
  8088   000AE4  2419               	addwf	??i1_check_for_full_rows^0,w,c
  8089   000AE6  6E1B               	movwf	(??i1_check_for_full_rows+2)^0,c
  8090   000AE8  0E01               	movlw	high (_display_matrix+65528)
  8091   000AEA  201A               	addwfc	(??i1_check_for_full_rows+1)^0,w,c
  8092   000AEC  6E1C               	movwf	(??i1_check_for_full_rows+3)^0,c
  8093   000AEE  502A               	movf	i1check_for_full_rows@j_943^0,w,c
  8094   000AF0  241B               	addwf	(??i1_check_for_full_rows+2)^0,w,c
  8095   000AF2  6ED9               	movwf	fsr2l,c
  8096   000AF4  502B               	movf	(i1check_for_full_rows@j_943+1)^0,w,c
  8097   000AF6  201C               	addwfc	(??i1_check_for_full_rows+3)^0,w,c
  8098   000AF8  6EDA               	movwf	fsr2h,c
  8099   000AFA  C024  F01D         	movff	i1check_for_full_rows@n,??i1_check_for_full_rows+4
  8100   000AFE  C025  F01E         	movff	i1check_for_full_rows@n+1,??i1_check_for_full_rows+5
  8101   000B02  90D8               	bcf	status,0,c
  8102   000B04  361D               	rlcf	(??i1_check_for_full_rows+4)^0,f,c
  8103   000B06  361E               	rlcf	(??i1_check_for_full_rows+5)^0,f,c
  8104   000B08  90D8               	bcf	status,0,c
  8105   000B0A  361D               	rlcf	(??i1_check_for_full_rows+4)^0,f,c
  8106   000B0C  361E               	rlcf	(??i1_check_for_full_rows+5)^0,f,c
  8107   000B0E  90D8               	bcf	status,0,c
  8108   000B10  361D               	rlcf	(??i1_check_for_full_rows+4)^0,f,c
  8109   000B12  361E               	rlcf	(??i1_check_for_full_rows+5)^0,f,c
  8110   000B14  0E10               	movlw	low _display_matrix
  8111   000B16  241D               	addwf	(??i1_check_for_full_rows+4)^0,w,c
  8112   000B18  6E1F               	movwf	(??i1_check_for_full_rows+6)^0,c
  8113   000B1A  0E01               	movlw	high _display_matrix
  8114   000B1C  201E               	addwfc	(??i1_check_for_full_rows+5)^0,w,c
  8115   000B1E  6E20               	movwf	(??i1_check_for_full_rows+7)^0,c
  8116   000B20  502A               	movf	i1check_for_full_rows@j_943^0,w,c
  8117   000B22  241F               	addwf	(??i1_check_for_full_rows+6)^0,w,c
  8118   000B24  6EE1               	movwf	fsr1l,c
  8119   000B26  502B               	movf	(i1check_for_full_rows@j_943+1)^0,w,c
  8120   000B28  2020               	addwfc	(??i1_check_for_full_rows+7)^0,w,c
  8121   000B2A  6EE2               	movwf	fsr1h,c
  8122   000B2C  CFDF FFE7          	movff	indf2,indf1
  8123   000B30  4A2A               	infsnz	i1check_for_full_rows@j_943^0,f,c
  8124   000B32  2A2B               	incf	(i1check_for_full_rows@j_943+1)^0,f,c
  8125   000B34  BE2B               	btfsc	(i1check_for_full_rows@j_943+1)^0,7,c
  8126   000B36  EFA6  F005         	goto	i1u242_21
  8127   000B3A  502B               	movf	(i1check_for_full_rows@j_943+1)^0,w,c
  8128   000B3C  E109               	bnz	i1u242_20
  8129   000B3E  0E08               	movlw	8
  8130   000B40  5C2A               	subwf	i1check_for_full_rows@j_943^0,w,c
  8131   000B42  A0D8               	btfss	status,0,c
  8132   000B44  EFA6  F005         	goto	i1u242_21
  8133   000B48  EFA8  F005         	goto	i1u242_20
  8134   000B4C                     i1u242_21:
  8135   000B4C  EF64  F005         	goto	i1l2636
  8136   000B50                     i1u242_20:
  8137   000B50                     
  8138                           ;./helpers.h: 129:                 n--;
  8139   000B50  0624               	decf	i1check_for_full_rows@n^0,f,c
  8140   000B52  A0D8               	btfss	status,0,c
  8141   000B54  0625               	decf	(i1check_for_full_rows@n+1)^0,f,c
  8142   000B56                     i1l2644:
  8143                           
  8144                           ;./helpers.h: 127:             while (n - 1 >= 2) {
  8145   000B56  0EFF               	movlw	255
  8146   000B58  2424               	addwf	i1check_for_full_rows@n^0,w,c
  8147   000B5A  6E19               	movwf	??i1_check_for_full_rows^0,c
  8148   000B5C  0EFF               	movlw	255
  8149   000B5E  2025               	addwfc	(i1check_for_full_rows@n+1)^0,w,c
  8150   000B60  6E1A               	movwf	(??i1_check_for_full_rows+1)^0,c
  8151   000B62  BE1A               	btfsc	(??i1_check_for_full_rows+1)^0,7,c
  8152   000B64  EFBF  F005         	goto	i1u243_20
  8153   000B68  501A               	movf	(??i1_check_for_full_rows+1)^0,w,c
  8154   000B6A  E107               	bnz	i1u243_21
  8155   000B6C  0E02               	movlw	2
  8156   000B6E  5C19               	subwf	??i1_check_for_full_rows^0,w,c
  8157   000B70  B0D8               	btfsc	status,0,c
  8158   000B72  EFBD  F005         	goto	i1u243_21
  8159   000B76  EFBF  F005         	goto	i1u243_20
  8160   000B7A                     i1u243_21:
  8161   000B7A  EF60  F005         	goto	i1l2630
  8162   000B7E                     i1u243_20:
  8163   000B7E                     
  8164                           ;./helpers.h: 131:             for (int j = 0; j < 8; j++) display_matrix[2][j] = 0;
  8165   000B7E  0E00               	movlw	0
  8166   000B80  6E27               	movwf	(i1check_for_full_rows@j_944+1)^0,c
  8167   000B82  0E00               	movlw	0
  8168   000B84  6E26               	movwf	i1check_for_full_rows@j_944^0,c
  8169   000B86                     i1l2652:
  8170   000B86  0E20               	movlw	low (_display_matrix+16)
  8171   000B88  2426               	addwf	i1check_for_full_rows@j_944^0,w,c
  8172   000B8A  6ED9               	movwf	fsr2l,c
  8173   000B8C  0E01               	movlw	high (_display_matrix+16)
  8174   000B8E  2027               	addwfc	(i1check_for_full_rows@j_944+1)^0,w,c
  8175   000B90  6EDA               	movwf	fsr2h,c
  8176   000B92  6ADF               	clrf	indf2,c
  8177   000B94  4A26               	infsnz	i1check_for_full_rows@j_944^0,f,c
  8178   000B96  2A27               	incf	(i1check_for_full_rows@j_944+1)^0,f,c
  8179   000B98  BE27               	btfsc	(i1check_for_full_rows@j_944+1)^0,7,c
  8180   000B9A  EFD8  F005         	goto	i1u244_21
  8181   000B9E  5027               	movf	(i1check_for_full_rows@j_944+1)^0,w,c
  8182   000BA0  E109               	bnz	i1u244_20
  8183   000BA2  0E08               	movlw	8
  8184   000BA4  5C26               	subwf	i1check_for_full_rows@j_944^0,w,c
  8185   000BA6  A0D8               	btfss	status,0,c
  8186   000BA8  EFD8  F005         	goto	i1u244_21
  8187   000BAC  EFDA  F005         	goto	i1u244_20
  8188   000BB0                     i1u244_21:
  8189   000BB0  EFC3  F005         	goto	i1l2652
  8190   000BB4                     i1u244_20:
  8191   000BB4                     
  8192                           ;./helpers.h: 132:             score++;
  8193   000BB4  4A4E               	infsnz	_score^0,f,c
  8194   000BB6  2A4F               	incf	(_score+1)^0,f,c
  8195   000BB8                     
  8196                           ;./helpers.h: 133:             update_score();
  8197   000BB8  ECD9  F012         	call	i1_update_score	;wreg free
  8198   000BBC                     
  8199                           ;./helpers.h: 135:             if (score % 12 == 0 && game_speed_ticks > 4) game_speed_t
      +                          icks -= 2;
  8200   000BBC  C04E  F013         	movff	_score,i1___awmod@dividend
  8201   000BC0  C04F  F014         	movff	_score+1,i1___awmod@dividend+1
  8202   000BC4  0E00               	movlw	0
  8203   000BC6  6E16               	movwf	(i1___awmod@divisor+1)^0,c
  8204   000BC8  0E0C               	movlw	12
  8205   000BCA  6E15               	movwf	i1___awmod@divisor^0,c
  8206   000BCC  EC78  F011         	call	i1___awmod	;wreg free
  8207   000BD0  5013               	movf	?i1___awmod^0,w,c
  8208   000BD2  1014               	iorwf	(?i1___awmod+1)^0,w,c
  8209   000BD4  A4D8               	btfss	status,2,c
  8210   000BD6  EFEF  F005         	goto	i1u245_21
  8211   000BDA  EFF1  F005         	goto	i1u245_20
  8212   000BDE                     i1u245_21:
  8213   000BDE  EFFB  F005         	goto	i1l2668
  8214   000BE2                     i1u245_20:
  8215   000BE2  0E04               	movlw	4
  8216   000BE4  6460               	cpfsgt	_game_speed_ticks^0,c
  8217   000BE6  EFF7  F005         	goto	i1u246_21
  8218   000BEA  EFF9  F005         	goto	i1u246_20
  8219   000BEE                     i1u246_21:
  8220   000BEE  EFFB  F005         	goto	i1l2668
  8221   000BF2                     i1u246_20:
  8222   000BF2  0E02               	movlw	2
  8223   000BF4  5E60               	subwf	_game_speed_ticks^0,f,c
  8224   000BF6                     i1l2668:
  8225                           
  8226                           ;./helpers.h: 137:     }
  8227   000BF6  4A28               	infsnz	i1check_for_full_rows@i^0,f,c
  8228   000BF8  2A29               	incf	(i1check_for_full_rows@i+1)^0,f,c
  8229   000BFA  BE29               	btfsc	(i1check_for_full_rows@i+1)^0,7,c
  8230   000BFC  EF09  F006         	goto	i1u247_21
  8231   000C00  5029               	movf	(i1check_for_full_rows@i+1)^0,w,c
  8232   000C02  E109               	bnz	i1u247_20
  8233   000C04  0E10               	movlw	16
  8234   000C06  5C28               	subwf	i1check_for_full_rows@i^0,w,c
  8235   000C08  A0D8               	btfss	status,0,c
  8236   000C0A  EF09  F006         	goto	i1u247_21
  8237   000C0E  EF0B  F006         	goto	i1u247_20
  8238   000C12                     i1u247_21:
  8239   000C12  EF18  F005         	goto	i1l2612
  8240   000C16                     i1u247_20:
  8241   000C16  0012               	return		;funcret
  8242   000C18                     __end_ofi1_check_for_full_rows:
  8243                           	callstack 0
  8244                           
  8245 ;; *************** function i1_update_score *****************
  8246 ;; Defined at:
  8247 ;;		line 43 in file "./helpers.h"
  8248 ;; Parameters:    Size  Location     Type
  8249 ;;		None
  8250 ;; Auto vars:     Size  Location     Type
  8251 ;;  i               2    4[COMRAM] unsigned int 
  8252 ;;  n               2    2[COMRAM] int 
  8253 ;;  x               2    0[COMRAM] int 
  8254 ;; Return value:  Size  Location     Type
  8255 ;;                  1    wreg      void 
  8256 ;; Registers used:
  8257 ;;		wreg, fsr2l, fsr2h, status,2, status,0
  8258 ;; Tracked objects:
  8259 ;;		On entry : 0/0
  8260 ;;		On exit  : 0/0
  8261 ;;		Unchanged: 0/0
  8262 ;; Data sizes:     COMRAM   BANK0   BANK1   BANK2   BANK3   BANK4   BANK5
  8263 ;;      Params:         0       0       0       0       0       0       0
  8264 ;;      Locals:         6       0       0       0       0       0       0
  8265 ;;      Temps:          0       0       0       0       0       0       0
  8266 ;;      Totals:         6       0       0       0       0       0       0
  8267 ;;Total ram usage:        6 bytes
  8268 ;; Hardware stack levels used: 1
  8269 ;; This function calls:
  8270 ;;		Nothing
  8271 ;; This function is called by:
  8272 ;;		i1_check_for_full_rows
  8273 ;;		i1_reset_game
  8274 ;; This function uses a non-reentrant model
  8275 ;;
  8276                           
  8277                           	psect	text43
  8278   0025B2                     __ptext43:
  8279                           	callstack 0
  8280   0025B2                     i1_update_score:
  8281                           	callstack 20
  8282   0025B2                     
  8283                           ;./helpers.h: 44:     int x = score;
  8284   0025B2  C04E  F001         	movff	_score,i1update_score@x
  8285   0025B6  C04F  F002         	movff	_score+1,i1update_score@x+1
  8286   0025BA                     
  8287                           ;./helpers.h: 45:     int n = 0;
  8288   0025BA  0E00               	movlw	0
  8289   0025BC  6E04               	movwf	(i1update_score@n+1)^0,c
  8290   0025BE  0E00               	movlw	0
  8291   0025C0  6E03               	movwf	i1update_score@n^0,c
  8292                           
  8293                           ;./helpers.h: 46:     for (unsigned i = 1 << 7; i > 0; i >>= 1) {
  8294   0025C2  0E00               	movlw	0
  8295   0025C4  6E06               	movwf	(i1update_score@i+1)^0,c
  8296   0025C6  0E80               	movlw	128
  8297   0025C8  6E05               	movwf	i1update_score@i^0,c
  8298   0025CA                     i1l2366:
  8299                           
  8300                           ;./helpers.h: 47:         if (x >= i) { x -= i; display_matrix[0][n] = 1; }
  8301   0025CA  5005               	movf	i1update_score@i^0,w,c
  8302   0025CC  5C01               	subwf	i1update_score@x^0,w,c
  8303   0025CE  5006               	movf	(i1update_score@i+1)^0,w,c
  8304   0025D0  5802               	subwfb	(i1update_score@x+1)^0,w,c
  8305   0025D2  A0D8               	btfss	status,0,c
  8306   0025D4  EFEE  F012         	goto	i1u202_21
  8307   0025D8  EFF0  F012         	goto	i1u202_20
  8308   0025DC                     i1u202_21:
  8309   0025DC  EFFE  F012         	goto	i1l2372
  8310   0025E0                     i1u202_20:
  8311   0025E0  5005               	movf	i1update_score@i^0,w,c
  8312   0025E2  5E01               	subwf	i1update_score@x^0,f,c
  8313   0025E4  5006               	movf	(i1update_score@i+1)^0,w,c
  8314   0025E6  5A02               	subwfb	(i1update_score@x+1)^0,f,c
  8315   0025E8  0E10               	movlw	low _display_matrix
  8316   0025EA  2403               	addwf	i1update_score@n^0,w,c
  8317   0025EC  6ED9               	movwf	fsr2l,c
  8318   0025EE  0E01               	movlw	high _display_matrix
  8319   0025F0  2004               	addwfc	(i1update_score@n+1)^0,w,c
  8320   0025F2  6EDA               	movwf	fsr2h,c
  8321   0025F4  0E01               	movlw	1
  8322   0025F6  6EDF               	movwf	indf2,c
  8323   0025F8  EF05  F013         	goto	i1l2374
  8324   0025FC                     i1l2372:
  8325   0025FC  0E10               	movlw	low _display_matrix
  8326   0025FE  2403               	addwf	i1update_score@n^0,w,c
  8327   002600  6ED9               	movwf	fsr2l,c
  8328   002602  0E01               	movlw	high _display_matrix
  8329   002604  2004               	addwfc	(i1update_score@n+1)^0,w,c
  8330   002606  6EDA               	movwf	fsr2h,c
  8331   002608  6ADF               	clrf	indf2,c
  8332   00260A                     i1l2374:
  8333                           
  8334                           ;./helpers.h: 49:         n++;
  8335   00260A  4A03               	infsnz	i1update_score@n^0,f,c
  8336   00260C  2A04               	incf	(i1update_score@n+1)^0,f,c
  8337   00260E                     
  8338                           ;./helpers.h: 50:     }
  8339   00260E  90D8               	bcf	status,0,c
  8340   002610  3206               	rrcf	(i1update_score@i+1)^0,f,c
  8341   002612  3205               	rrcf	i1update_score@i^0,f,c
  8342   002614  5005               	movf	i1update_score@i^0,w,c
  8343   002616  1006               	iorwf	(i1update_score@i+1)^0,w,c
  8344   002618  A4D8               	btfss	status,2,c
  8345   00261A  EF11  F013         	goto	i1u203_21
  8346   00261E  EF13  F013         	goto	i1u203_20
  8347   002622                     i1u203_21:
  8348   002622  EFE5  F012         	goto	i1l2366
  8349   002626                     i1u203_20:
  8350   002626  0012               	return		;funcret
  8351   002628                     __end_ofi1_update_score:
  8352                           	callstack 0
  8353                           
  8354 ;; *************** function i1___awmod *****************
  8355 ;; Defined at:
  8356 ;;		line 7 in file "C:\Program Files\Microchip\xc8\v3.00\pic\sources\c99\common\awmod.c"
  8357 ;; Parameters:    Size  Location     Type
  8358 ;;  dividend        2   18[COMRAM] int 
  8359 ;;  divisor         2   20[COMRAM] int 
  8360 ;; Auto vars:     Size  Location     Type
  8361 ;;  sign            1   23[COMRAM] unsigned char 
  8362 ;;  counter         1   22[COMRAM] unsigned char 
  8363 ;; Return value:  Size  Location     Type
  8364 ;;                  2   18[COMRAM] int 
  8365 ;; Registers used:
  8366 ;;		wreg, status,2, status,0
  8367 ;; Tracked objects:
  8368 ;;		On entry : 0/0
  8369 ;;		On exit  : 0/0
  8370 ;;		Unchanged: 0/0
  8371 ;; Data sizes:     COMRAM   BANK0   BANK1   BANK2   BANK3   BANK4   BANK5
  8372 ;;      Params:         4       0       0       0       0       0       0
  8373 ;;      Locals:         2       0       0       0       0       0       0
  8374 ;;      Temps:          0       0       0       0       0       0       0
  8375 ;;      Totals:         6       0       0       0       0       0       0
  8376 ;;Total ram usage:        6 bytes
  8377 ;; Hardware stack levels used: 1
  8378 ;; This function calls:
  8379 ;;		Nothing
  8380 ;; This function is called by:
  8381 ;;		i1_check_for_full_rows
  8382 ;;		i1_drop_block_from_sky
  8383 ;; This function uses a non-reentrant model
  8384 ;;
  8385                           
  8386                           	psect	text44
  8387   0022F0                     __ptext44:
  8388                           	callstack 0
  8389   0022F0                     i1___awmod:
  8390                           	callstack 20
  8391   0022F0  6A18               	clrf	i1___awmod@sign^0,c
  8392   0022F2  BE14               	btfsc	(i1___awmod@dividend+1)^0,7,c
  8393   0022F4  EF80  F011         	goto	i1u206_20
  8394   0022F8  EF7E  F011         	goto	i1u206_21
  8395   0022FC                     i1u206_21:
  8396   0022FC  EF86  F011         	goto	i1l2410
  8397   002300                     i1u206_20:
  8398   002300  6C13               	negf	i1___awmod@dividend^0,c
  8399   002302  1E14               	comf	(i1___awmod@dividend+1)^0,f,c
  8400   002304  B0D8               	btfsc	status,0,c
  8401   002306  2A14               	incf	(i1___awmod@dividend+1)^0,f,c
  8402   002308  0E01               	movlw	1
  8403   00230A  6E18               	movwf	i1___awmod@sign^0,c
  8404   00230C                     i1l2410:
  8405   00230C  BE16               	btfsc	(i1___awmod@divisor+1)^0,7,c
  8406   00230E  EF8D  F011         	goto	i1u207_20
  8407   002312  EF8B  F011         	goto	i1u207_21
  8408   002316                     i1u207_21:
  8409   002316  EF91  F011         	goto	i1l2414
  8410   00231A                     i1u207_20:
  8411   00231A  6C15               	negf	i1___awmod@divisor^0,c
  8412   00231C  1E16               	comf	(i1___awmod@divisor+1)^0,f,c
  8413   00231E  B0D8               	btfsc	status,0,c
  8414   002320  2A16               	incf	(i1___awmod@divisor+1)^0,f,c
  8415   002322                     i1l2414:
  8416   002322  5015               	movf	i1___awmod@divisor^0,w,c
  8417   002324  1016               	iorwf	(i1___awmod@divisor+1)^0,w,c
  8418   002326  B4D8               	btfsc	status,2,c
  8419   002328  EF98  F011         	goto	i1u208_21
  8420   00232C  EF9A  F011         	goto	i1u208_20
  8421   002330                     i1u208_21:
  8422   002330  EFBE  F011         	goto	i1l2430
  8423   002334                     i1u208_20:
  8424   002334  0E01               	movlw	1
  8425   002336  6E17               	movwf	i1___awmod@counter^0,c
  8426   002338  EFA2  F011         	goto	i1l2420
  8427   00233C                     i1l2418:
  8428   00233C  90D8               	bcf	status,0,c
  8429   00233E  3615               	rlcf	i1___awmod@divisor^0,f,c
  8430   002340  3616               	rlcf	(i1___awmod@divisor+1)^0,f,c
  8431   002342  2A17               	incf	i1___awmod@counter^0,f,c
  8432   002344                     i1l2420:
  8433   002344  AE16               	btfss	(i1___awmod@divisor+1)^0,7,c
  8434   002346  EFA7  F011         	goto	i1u209_21
  8435   00234A  EFA9  F011         	goto	i1u209_20
  8436   00234E                     i1u209_21:
  8437   00234E  EF9E  F011         	goto	i1l2418
  8438   002352                     i1u209_20:
  8439   002352                     i1l2422:
  8440   002352  5015               	movf	i1___awmod@divisor^0,w,c
  8441   002354  5C13               	subwf	i1___awmod@dividend^0,w,c
  8442   002356  5016               	movf	(i1___awmod@divisor+1)^0,w,c
  8443   002358  5814               	subwfb	(i1___awmod@dividend+1)^0,w,c
  8444   00235A  A0D8               	btfss	status,0,c
  8445   00235C  EFB2  F011         	goto	i1u210_21
  8446   002360  EFB4  F011         	goto	i1u210_20
  8447   002364                     i1u210_21:
  8448   002364  EFB8  F011         	goto	i1l2426
  8449   002368                     i1u210_20:
  8450   002368  5015               	movf	i1___awmod@divisor^0,w,c
  8451   00236A  5E13               	subwf	i1___awmod@dividend^0,f,c
  8452   00236C  5016               	movf	(i1___awmod@divisor+1)^0,w,c
  8453   00236E  5A14               	subwfb	(i1___awmod@dividend+1)^0,f,c
  8454   002370                     i1l2426:
  8455   002370  90D8               	bcf	status,0,c
  8456   002372  3216               	rrcf	(i1___awmod@divisor+1)^0,f,c
  8457   002374  3215               	rrcf	i1___awmod@divisor^0,f,c
  8458   002376  2E17               	decfsz	i1___awmod@counter^0,f,c
  8459   002378  EFA9  F011         	goto	i1l2422
  8460   00237C                     i1l2430:
  8461   00237C  5018               	movf	i1___awmod@sign^0,w,c
  8462   00237E  B4D8               	btfsc	status,2,c
  8463   002380  EFC4  F011         	goto	i1u211_21
  8464   002384  EFC6  F011         	goto	i1u211_20
  8465   002388                     i1u211_21:
  8466   002388  EFCA  F011         	goto	i1l2434
  8467   00238C                     i1u211_20:
  8468   00238C  6C13               	negf	i1___awmod@dividend^0,c
  8469   00238E  1E14               	comf	(i1___awmod@dividend+1)^0,f,c
  8470   002390  B0D8               	btfsc	status,0,c
  8471   002392  2A14               	incf	(i1___awmod@dividend+1)^0,f,c
  8472   002394                     i1l2434:
  8473   002394  C013  F013         	movff	i1___awmod@dividend,?i1___awmod
  8474   002398  C014  F014         	movff	i1___awmod@dividend+1,?i1___awmod+1
  8475   00239C  0012               	return		;funcret
  8476   00239E                     __end_ofi1___awmod:
  8477                           	callstack 0
  8478                           
  8479 ;; *************** function _onReadChar *****************
  8480 ;; Defined at:
  8481 ;;		line 105 in file "tetris.c"
  8482 ;; Parameters:    Size  Location     Type
  8483 ;;  c               1    wreg     unsigned char 
  8484 ;; Auto vars:     Size  Location     Type
  8485 ;;  c               1    0[COMRAM] unsigned char 
  8486 ;; Return value:  Size  Location     Type
  8487 ;;                  1    wreg      void 
  8488 ;; Registers used:
  8489 ;;		wreg
  8490 ;; Tracked objects:
  8491 ;;		On entry : 0/0
  8492 ;;		On exit  : 0/0
  8493 ;;		Unchanged: 0/0
  8494 ;; Data sizes:     COMRAM   BANK0   BANK1   BANK2   BANK3   BANK4   BANK5
  8495 ;;      Params:         0       0       0       0       0       0       0
  8496 ;;      Locals:         0       0       0       0       0       0       0
  8497 ;;      Temps:          0       0       0       0       0       0       0
  8498 ;;      Totals:         0       0       0       0       0       0       0
  8499 ;;Total ram usage:        0 bytes
  8500 ;; Hardware stack levels used: 1
  8501 ;; This function calls:
  8502 ;;		Nothing
  8503 ;; This function is called by:
  8504 ;;		_main
  8505 ;;		_processSerialReceive
  8506 ;; This function uses a non-reentrant model
  8507 ;;
  8508                           
  8509                           	psect	text45
  8510   002BE4                     __ptext45:
  8511                           	callstack 0
  8512   002BE4                     _onReadChar:
  8513                           	callstack 23
  8514   002BE4  0012               	return		;funcret
  8515   002BE6                     __end_of_onReadChar:
  8516                           	callstack 0
  8517                           
  8518                           	psect	rparam
  8519   000001                     ___rparam_used  equ	1
  8520   000000                     ___param_bank   equ	0
  8521   000000                     __Lparam        equ	__Lrparam
  8522   000000                     __Hparam        equ	__Hrparam
  8523                           
  8524                           	psect	temp
  8525   000071                     btemp:
  8526                           	callstack 0
  8527   000071                     	ds	1
  8528   000071                     int$flags       set	btemp
  8529   000072                     wtemp8          set	btemp+1
  8530   000072                     ttemp5          set	btemp+1
  8531   000075                     ttemp6          set	btemp+4
  8532   000079                     ttemp7          set	btemp+8
  8533                           
  8534                           	psect	idloc
  8535                           
  8536                           ;Config register IDLOC0 @ 0x200000
  8537                           ;	unspecified, using default values
  8538   200000                     	org	2097152
  8539   200000  FF                 	db	255
  8540                           
  8541                           ;Config register IDLOC1 @ 0x200001
  8542                           ;	unspecified, using default values
  8543   200001                     	org	2097153
  8544   200001  FF                 	db	255
  8545                           
  8546                           ;Config register IDLOC2 @ 0x200002
  8547                           ;	unspecified, using default values
  8548   200002                     	org	2097154
  8549   200002  FF                 	db	255
  8550                           
  8551                           ;Config register IDLOC3 @ 0x200003
  8552                           ;	unspecified, using default values
  8553   200003                     	org	2097155
  8554   200003  FF                 	db	255
  8555                           
  8556                           ;Config register IDLOC4 @ 0x200004
  8557                           ;	unspecified, using default values
  8558   200004                     	org	2097156
  8559   200004  FF                 	db	255
  8560                           
  8561                           ;Config register IDLOC5 @ 0x200005
  8562                           ;	unspecified, using default values
  8563   200005                     	org	2097157
  8564   200005  FF                 	db	255
  8565                           
  8566                           ;Config register IDLOC6 @ 0x200006
  8567                           ;	unspecified, using default values
  8568   200006                     	org	2097158
  8569   200006  FF                 	db	255
  8570                           
  8571                           ;Config register IDLOC7 @ 0x200007
  8572                           ;	unspecified, using default values
  8573   200007                     	org	2097159
  8574   200007  FF                 	db	255
  8575                           
  8576                           	psect	config
  8577                           
  8578                           ; Padding undefined space
  8579   300000                     	org	3145728
  8580   300000  FF                 	db	255
  8581                           
  8582                           ;Config register CONFIG1H @ 0x300001
  8583                           ;	Oscillator Selection bits
  8584                           ;	OSC = INTIO67, Internal oscillator block, port function on RA6 and RA7
  8585                           ;	Fail-Safe Clock Monitor Enable bit
  8586                           ;	FCMEN = 0x0, unprogrammed default
  8587                           ;	Internal/External Oscillator Switchover bit
  8588                           ;	IESO = 0x0, unprogrammed default
  8589   300001                     	org	3145729
  8590   300001  08                 	db	8
  8591                           
  8592                           ;Config register CONFIG2L @ 0x300002
  8593                           ;	Power-up Timer Enable bit
  8594                           ;	PWRT = OFF, PWRT disabled
  8595                           ;	Brown-out Reset Enable bits
  8596                           ;	BOREN = ON, Brown-out Reset enabled and controlled by software (SBOREN is enabled)
  8597                           ;	Brown Out Reset Voltage bits
  8598                           ;	BORV = 0x3, unprogrammed default
  8599   300002                     	org	3145730
  8600   300002  1B                 	db	27
  8601                           
  8602                           ;Config register CONFIG2H @ 0x300003
  8603                           ;	Watchdog Timer Enable bit
  8604                           ;	WDT = OFF, WDT disabled (control is placed on the SWDTEN bit)
  8605                           ;	Watchdog Timer Postscale Select bits
  8606                           ;	WDTPS = 0xF, unprogrammed default
  8607   300003                     	org	3145731
  8608   300003  1E                 	db	30
  8609                           
  8610                           ; Padding undefined space
  8611   300004                     	org	3145732
  8612   300004  FF                 	db	255
  8613                           
  8614                           ;Config register CONFIG3H @ 0x300005
  8615                           ;	CCP2 MUX bit
  8616                           ;	CCP2MX = 0x1, unprogrammed default
  8617                           ;	PORTB A/D Enable bit
  8618                           ;	PBADEN = OFF, PORTB<4:0> pins are configured as digital I/O on Reset
  8619                           ;	Low-Power Timer1 Oscillator Enable bit
  8620                           ;	LPT1OSC = 0x0, unprogrammed default
  8621                           ;	MCLR Pin Enable bit
  8622                           ;	MCLRE = ON, MCLR pin enabled; RE3 input pin disabled
  8623   300005                     	org	3145733
  8624   300005  81                 	db	129
  8625                           
  8626                           ;Config register CONFIG4L @ 0x300006
  8627                           ;	Stack Full/Underflow Reset Enable bit
  8628                           ;	STVREN = 0x1, unprogrammed default
  8629                           ;	Single-Supply ICSP Enable bit
  8630                           ;	LVP = OFF, Single-Supply ICSP disabled
  8631                           ;	Extended Instruction Set Enable bit
  8632                           ;	XINST = 0x0, unprogrammed default
  8633                           ;	Background Debugger Enable bit
  8634                           ;	DEBUG = 0x1, unprogrammed default
  8635   300006                     	org	3145734
  8636   300006  81                 	db	129
  8637                           
  8638                           ; Padding undefined space
  8639   300007                     	org	3145735
  8640   300007  FF                 	db	255
  8641                           
  8642                           ;Config register CONFIG5L @ 0x300008
  8643                           ;	unspecified, using default values
  8644                           ;	Code Protection bit
  8645                           ;	CP0 = 0x1, unprogrammed default
  8646                           ;	Code Protection bit
  8647                           ;	CP1 = 0x1, unprogrammed default
  8648                           ;	Code Protection bit
  8649                           ;	CP2 = 0x1, unprogrammed default
  8650                           ;	Code Protection bit
  8651                           ;	CP3 = 0x1, unprogrammed default
  8652   300008                     	org	3145736
  8653   300008  0F                 	db	15
  8654                           
  8655                           ;Config register CONFIG5H @ 0x300009
  8656                           ;	Boot Block Code Protection bit
  8657                           ;	CPB = 0x1, unprogrammed default
  8658                           ;	Data EEPROM Code Protection bit
  8659                           ;	CPD = OFF, Data EEPROM not code-protected
  8660   300009                     	org	3145737
  8661   300009  C0                 	db	192
  8662                           
  8663                           ;Config register CONFIG6L @ 0x30000A
  8664                           ;	unspecified, using default values
  8665                           ;	Write Protection bit
  8666                           ;	WRT0 = 0x1, unprogrammed default
  8667                           ;	Write Protection bit
  8668                           ;	WRT1 = 0x1, unprogrammed default
  8669                           ;	Write Protection bit
  8670                           ;	WRT2 = 0x1, unprogrammed default
  8671                           ;	Write Protection bit
  8672                           ;	WRT3 = 0x1, unprogrammed default
  8673   30000A                     	org	3145738
  8674   30000A  0F                 	db	15
  8675                           
  8676                           ;Config register CONFIG6H @ 0x30000B
  8677                           ;	unspecified, using default values
  8678                           ;	Configuration Register Write Protection bit
  8679                           ;	WRTC = 0x1, unprogrammed default
  8680                           ;	Boot Block Write Protection bit
  8681                           ;	WRTB = 0x1, unprogrammed default
  8682                           ;	Data EEPROM Write Protection bit
  8683                           ;	WRTD = 0x1, unprogrammed default
  8684   30000B                     	org	3145739
  8685   30000B  E0                 	db	224
  8686                           
  8687                           ;Config register CONFIG7L @ 0x30000C
  8688                           ;	unspecified, using default values
  8689                           ;	Table Read Protection bit
  8690                           ;	EBTR0 = 0x1, unprogrammed default
  8691                           ;	Table Read Protection bit
  8692                           ;	EBTR1 = 0x1, unprogrammed default
  8693                           ;	Table Read Protection bit
  8694                           ;	EBTR2 = 0x1, unprogrammed default
  8695                           ;	Table Read Protection bit
  8696                           ;	EBTR3 = 0x1, unprogrammed default
  8697   30000C                     	org	3145740
  8698   30000C  0F                 	db	15
  8699                           
  8700                           ;Config register CONFIG7H @ 0x30000D
  8701                           ;	unspecified, using default values
  8702                           ;	Boot Block Table Read Protection bit
  8703                           ;	EBTRB = 0x1, unprogrammed default
  8704   30000D                     	org	3145741
  8705   30000D  40                 	db	64
  8706                           tosu	equ	0xFFF
  8707                           tosh	equ	0xFFE
  8708                           tosl	equ	0xFFD
  8709                           stkptr	equ	0xFFC
  8710                           pclatu	equ	0xFFB
  8711                           pclath	equ	0xFFA
  8712                           pcl	equ	0xFF9
  8713                           tblptru	equ	0xFF8
  8714                           tblptrh	equ	0xFF7
  8715                           tblptrl	equ	0xFF6
  8716                           tablat	equ	0xFF5
  8717                           prodh	equ	0xFF4
  8718                           prodl	equ	0xFF3
  8719                           indf0	equ	0xFEF
  8720                           postinc0	equ	0xFEE
  8721                           postdec0	equ	0xFED
  8722                           preinc0	equ	0xFEC
  8723                           plusw0	equ	0xFEB
  8724                           fsr0h	equ	0xFEA
  8725                           fsr0l	equ	0xFE9
  8726                           wreg	equ	0xFE8
  8727                           indf1	equ	0xFE7
  8728                           postinc1	equ	0xFE6
  8729                           postdec1	equ	0xFE5
  8730                           preinc1	equ	0xFE4
  8731                           plusw1	equ	0xFE3
  8732                           fsr1h	equ	0xFE2
  8733                           fsr1l	equ	0xFE1
  8734                           bsr	equ	0xFE0
  8735                           indf2	equ	0xFDF
  8736                           postinc2	equ	0xFDE
  8737                           postdec2	equ	0xFDD
  8738                           preinc2	equ	0xFDC
  8739                           plusw2	equ	0xFDB
  8740                           fsr2h	equ	0xFDA
  8741                           fsr2l	equ	0xFD9
  8742                           status	equ	0xFD8

Data Sizes:
    Strings     26
    Constant    0
    Data        114
    BSS         375
    Persistent  0
    Stack       0

Auto Spaces:
    Space          Size  Autos    Used
    COMRAM          126     61     112
    BANK0           128     26     128
    BANK1           256     25     233
    BANK2           256      0     128
    BANK3           256      0       0
    BANK4           256      0       0
    BANK5           244      0       0

Pointer List with Targets:

    d$cp	PTR const unsigned char  size(2) Largest target is 0

    d$p	PTR unsigned char  size(2) Largest target is 0

    memmove@d1	PTR void  size(2) Largest target is 128
		 -> display_matrix(BANK1[128]), 

    memmove@s1	PTR const void  size(2) Largest target is 128
		 -> display_matrix(BANK1[128]), 

    memset@dest	PTR void  size(2) Largest target is 128
		 -> display_matrix(BANK1[128]), 

    memset@p	PTR unsigned char  size(2) Largest target is 128
		 -> display_matrix(BANK1[128]), 

    NULL$0	PTR unsigned char  size(2) Largest target is 64
		 -> serialBuffer(BANK1[64]), 

    onReadLine@line	PTR unsigned char  size(2) Largest target is 64
		 -> serialBuffer(BANK1[64]), 

    s$cp	PTR const unsigned char  size(2) Largest target is 0

    s$p	PTR unsigned char  size(2) Largest target is 0

    S1478$cp	PTR const unsigned char  size(2) Largest target is 0

    S1478$p	PTR unsigned char  size(2) Largest target is 0

    serialOnReadChar	PTR FTN(unsigned char ,)void  size(2) Largest target is 1
		 -> onReadChar(), NULL(), 

    serialOnReadLine	PTR FTN(PTR unsigned char ,unsigned char ,)void  size(2) Largest target is 1
		 -> onReadLine(), NULL(), 

    serialOnReadLine$0	PTR unsigned char  size(2) Largest target is 64
		 -> serialBuffer(BANK1[64]), 

    serialPrint@text	PTR unsigned char  size(1) Largest target is 14
		 -> STR_1(CODE[12]), STR_2(CODE[14]), 

    set_current_block@b	PTR _Bool [4] size(1) Largest target is 16
		 -> block_I(COMRAM[16]), block_J(BANK0[16]), block_L(BANK0[16]), block_O(BANK0[16]), 
		 -> block_S(BANK0[16]), block_T(BANK0[16]), block_Z(BANK0[16]), 

    sp__memmove	PTR void  size(2) Largest target is 128
		 -> display_matrix(BANK1[128]), 

    sp__memset	PTR void  size(2) Largest target is 128
		 -> display_matrix(BANK1[128]), 


Critical Paths under _main in COMRAM

    None.

Critical Paths under _Lo_ISR in COMRAM

    _Lo_ISR->_processSerialReceive
    _processSerialReceive->_onReadLine
    _onReadLine->i1_generate_garbage
    i1_generate_garbage->i1_check_for_full_rows
    i1_reset_game->i1_update_score
    i1_drop_block_from_sky->i1___awmod
    i1_rand->i1___lmul
    i1_check_for_full_rows->i1___awmod
    i1___awmod->i1_rand

Critical Paths under _main in BANK0

    _main->_drop_block_from_sky
    _update_display->_SPI_Write_Byte
    _serialBegin->___aldiv
    _game_step->_drop_block_from_sky
    _generate_garbage->_drop_block_from_sky
    _reset_game->_update_score
    _drop_block_from_sky->___awmod
    _rand->___lmul
    _check_for_full_rows->___awmod
    ___awmod->_rand
    _MAX7219_Init->_MAX7219_Write_All
    _MAX7219_Write_All->_SPI_Write_Byte

Critical Paths under _Lo_ISR in BANK0

    None.

Critical Paths under _main in BANK1

    _main->_check_inputs
    _game_step->_check_for_full_rows
    _check_inputs->_generate_garbage
    _generate_garbage->_check_for_full_rows

Critical Paths under _Lo_ISR in BANK1

    None.

Critical Paths under _main in BANK2

    None.

Critical Paths under _Lo_ISR in BANK2

    None.

Critical Paths under _main in BANK3

    None.

Critical Paths under _Lo_ISR in BANK3

    None.

Critical Paths under _main in BANK4

    None.

Critical Paths under _Lo_ISR in BANK4

    None.

Critical Paths under _main in BANK5

    None.

Critical Paths under _Lo_ISR in BANK5

    None.

Call Graph Tables:

 ---------------------------------------------------------------------------------
 (Depth) Function   	        Calls       Base Space   Used Autos Params    Refs
 ---------------------------------------------------------------------------------
 (0) _main                                                 3     3      0   15356
                                             22 BANK1      3     3      0
                       _MAX7219_Init
                  _MAX7219_Write_All
                           _MCU_Init
                            ___awmod
                       _check_inputs
                      _compose_board
                _drop_block_from_sky
                          _game_step
                               _rand
                         _reset_game
                        _serialBegin
                        _serialPrint
                              _srand
                     _update_display
 ---------------------------------------------------------------------------------
 (1) _update_display                                      12    12      0     672
                                              5 BANK0     12    12      0
                     _SPI_Write_Byte
 ---------------------------------------------------------------------------------
 (1) _srand                                                4     2      2      34
                                              0 BANK0      4     2      2
 ---------------------------------------------------------------------------------
 (1) _serialPrint                                          4     3      1     136
                                              0 BANK0      4     3      1
 ---------------------------------------------------------------------------------
 (1) _serialBegin                                         10     5      5     735
                                             14 BANK0     10     5      5
                            ___aldiv
 ---------------------------------------------------------------------------------
 (2) ___aldiv                                             14     6      8     469
                                              0 BANK0     14     6      8
 ---------------------------------------------------------------------------------
 (1) _game_step                                            0     0      0    3773
                _check_for_full_rows
_current_block_is_in_illegal_positio
                _drop_block_from_sky
                         _reset_game
             _solidify_current_block
 ---------------------------------------------------------------------------------
 (1) _compose_board                                       20    20      0     712
                                              0 BANK0     20    20      0
 ---------------------------------------------------------------------------------
 (1) _check_inputs                                         1     1      0    6251
                                             21 BANK1      1     1      0
_current_block_is_in_illegal_positio
                   _generate_garbage
               _rotate_current_block
 ---------------------------------------------------------------------------------
 (2) _rotate_current_block                                15    15      0    1205
                                              0 BANK0     15    15      0
 ---------------------------------------------------------------------------------
 (2) _generate_garbage                                     4     2      2    4594
                                             19 BANK1      2     0      2
                _check_for_full_rows
_current_block_is_in_illegal_positio
                _drop_block_from_sky
                            _memmove
                             _memset
                         _reset_game
             _solidify_current_block
 ---------------------------------------------------------------------------------
 (2) _solidify_current_block                              12    12      0     452
                                              0 BANK0     12    12      0
 ---------------------------------------------------------------------------------
 (1) _reset_game                                           8     8      0     495
                                              6 BANK0      8     8      0
                       _update_score
 ---------------------------------------------------------------------------------
 (3) _memset                                               8     2      6     146
                                              0 BANK0      8     2      6
 ---------------------------------------------------------------------------------
 (3) _memmove                                             31    25      6     607
                                              0 BANK0     24    18      6
                                              0 BANK1      7     7      0
 ---------------------------------------------------------------------------------
 (2) _drop_block_from_sky                                  2     2      0    1094
                                             24 BANK0      2     2      0
                            ___awmod
                               _rand
                  _set_current_block
 ---------------------------------------------------------------------------------
 (3) _set_current_block                                    5     4      1     312
                                              0 BANK0      5     4      1
 ---------------------------------------------------------------------------------
 (1) _rand                                                 6     4      2     142
                                             12 BANK0      6     4      2
                             ___lmul
 ---------------------------------------------------------------------------------
 (2) ___lmul                                              12     4      8     142
                                              0 BANK0     12     4      8
 ---------------------------------------------------------------------------------
 (2) _current_block_is_in_illegal_position                12    12      0     452
                                              0 BANK0     12    12      0
 ---------------------------------------------------------------------------------
 (2) _check_for_full_rows                                 19    19      0    1280
                                              0 BANK1     19    19      0
                            ___awmod
                       _update_score
 ---------------------------------------------------------------------------------
 (2) _update_score                                         6     6      0     235
                                              0 BANK0      6     6      0
 ---------------------------------------------------------------------------------
 (3) ___awmod                                              6     2      4     451
                                             18 BANK0      6     2      4
                               _rand (ARG)
 ---------------------------------------------------------------------------------
 (1) _MCU_Init                                             0     0      0       0
 ---------------------------------------------------------------------------------
 (1) _MAX7219_Init                                         2     2      0     412
                                              9 BANK0      2     2      0
                  _MAX7219_Write_All
 ---------------------------------------------------------------------------------
 (1) _MAX7219_Write_All                                    4     3      1     313
                                              5 BANK0      4     3      1
                     _SPI_Write_Byte
 ---------------------------------------------------------------------------------
 (2) _SPI_Write_Byte                                       5     5      0     146
                                              0 BANK0      5     5      0
 ---------------------------------------------------------------------------------
 Estimated maximum stack depth 3
 ---------------------------------------------------------------------------------
 (Depth) Function   	        Calls       Base Space   Used Autos Params    Refs
 ---------------------------------------------------------------------------------
 (6) _Lo_ISR                                              11    11      0    3388
                                             50 COMRAM    11    11      0
               _processSerialReceive
 ---------------------------------------------------------------------------------
 (7) _processSerialReceive                                 1     1      0    3388
                                             49 COMRAM     1     1      0
                                NULL *
                         _onReadChar *
                         _onReadLine *
                         _serialRead
                        _serialWrite
 ---------------------------------------------------------------------------------
 (8) _serialWrite                                          1     1      0      29
                                              0 COMRAM     1     1      0
 ---------------------------------------------------------------------------------
 (8) _serialRead                                           0     0      0       0
 ---------------------------------------------------------------------------------
 (8) _onReadLine                                           4     1      3    3170
                                             45 COMRAM     4     1      3
                 i1_generate_garbage
 ---------------------------------------------------------------------------------
 (9) i1_generate_garbage                                   4     2      2    3133
                                             43 COMRAM     2     0      2
              i1_check_for_full_rows
i1_current_block_is_in_illegal_posit
              i1_drop_block_from_sky
                          i1_memmove
                           i1_memset
                       i1_reset_game
           i1_solidify_current_block
 ---------------------------------------------------------------------------------
 (10) i1_solidify_current_block                           12    12      0     314
                                              0 COMRAM    12    12      0
 ---------------------------------------------------------------------------------
 (10) i1_reset_game                                        8     8      0     340
                                              6 COMRAM     8     8      0
                     i1_update_score
 ---------------------------------------------------------------------------------
 (10) i1_memset                                            8     2      6      99
                                              0 COMRAM     8     2      6
 ---------------------------------------------------------------------------------
 (10) i1_memmove                                          31    25      6     416
                                              0 COMRAM    31    25      6
 ---------------------------------------------------------------------------------
 (10) i1_drop_block_from_sky                               2     2      0     736
                                             24 COMRAM     2     2      0
                          i1___awmod
                             i1_rand
                i1_set_current_block
 ---------------------------------------------------------------------------------
 (11) i1_set_current_block                                 5     4      1     209
                                              0 COMRAM     5     4      1
 ---------------------------------------------------------------------------------
 (11) i1_rand                                              6     4      2      94
                                             12 COMRAM     6     4      2
                           i1___lmul
 ---------------------------------------------------------------------------------
 (12) i1___lmul                                           12     4      8      94
                                              0 COMRAM    12     4      8
 ---------------------------------------------------------------------------------
 (10) i1_current_block_is_in_illegal_position             12    12      0     314
                                              0 COMRAM    12    12      0
 ---------------------------------------------------------------------------------
 (10) i1_check_for_full_rows                              19    19      0     868
                                             24 COMRAM    19    19      0
                          i1___awmod
                     i1_update_score
 ---------------------------------------------------------------------------------
 (11) i1_update_score                                      6     6      0     160
                                              0 COMRAM     6     6      0
 ---------------------------------------------------------------------------------
 (11) i1___awmod                                           6     2      4     300
                                             18 COMRAM     6     2      4
                             i1_rand (ARG)
 ---------------------------------------------------------------------------------
 (8) _onReadChar                                           1     1      0       0
 ---------------------------------------------------------------------------------
 (8) NULL(Fake)                                            3     0      3       0
 ---------------------------------------------------------------------------------
 Estimated maximum stack depth 12
 ---------------------------------------------------------------------------------

 Call Graph Graphs:

 _main (ROOT)
   _MAX7219_Init
     _MAX7219_Write_All
       _SPI_Write_Byte
   _MAX7219_Write_All
   _MCU_Init
   ___awmod
     _rand (ARG)
       ___lmul
   _check_inputs
     _current_block_is_in_illegal_position
     _generate_garbage
       _check_for_full_rows
         ___awmod
         _update_score
       _current_block_is_in_illegal_position
       _drop_block_from_sky
         ___awmod
         _rand
         _set_current_block
       _memmove
       _memset
       _reset_game
         _update_score
       _solidify_current_block
     _rotate_current_block
   _compose_board
   _drop_block_from_sky
   _game_step
     _check_for_full_rows
     _current_block_is_in_illegal_position
     _drop_block_from_sky
     _reset_game
     _solidify_current_block
   _rand
   _reset_game
   _serialBegin
     ___aldiv
   _serialPrint
   _srand
   _update_display
     _SPI_Write_Byte

 _Lo_ISR (ROOT)
   _processSerialReceive
     NULL(Fake) *
     _onReadChar *
     _onReadLine *
       i1_generate_garbage
         i1_check_for_full_rows
           i1___awmod
             i1_rand (ARG)
               i1___lmul
           i1_update_score
         i1_current_block_is_in_illegal_position
         i1_drop_block_from_sky
           i1___awmod
           i1_rand
           i1_set_current_block
         i1_memmove
         i1_memset
         i1_reset_game
           i1_update_score
         i1_solidify_current_block
     _serialRead *
     _serialWrite *

Address spaces:
Name               Size   Autos  Total    Usage
BIGRAM            1523      0       0      0.0%
BITBANK4           256      0       0      0.0%
BANK4              256      0       0      0.0%
BITBANK3           256      0       0      0.0%
BANK3              256      0       0      0.0%
BITBANK2           256      0       0      0.0%
BANK2              256      0     128     50.0%
BITBANK1           256      0       0      0.0%
BANK1              256     25     233     91.0%
BITBANK5           244      0       0      0.0%
BANK5              244      0       0      0.0%
BITBANK0           128      0       0      0.0%
BANK0              128     26     128    100.0%
BITCOMRAM          126      0       0      0.0%
COMRAM             126     61     112     88.9%
BITBIGSFR_1h        38      0       0      0.0%
BITBIGSFRh          26      0       0      0.0%
BITBIGSFR_1llh      12      0       0      0.0%
BITBIGSFR_5h        10      0       0      0.0%
BITBIGSFR_2          6      0       0      0.0%
BITBIGSFR_4          3      0       0      0.0%
BITBIGSFR_3          3      0       0      0.0%
BITBIGSFR_5l         2      0       0      0.0%
BITBIGSFR_1lh        1      0       0      0.0%
BITBIGSFRl           1      0       0      0.0%
STACK                0      0       0      0.0%
DATA                 0      0     586      0.0%


Microchip Technology PIC18 Macro Assembler V3.00 build 20241204225717 
Symbol Table                                                                                   Thu Dec 11 14:48:11 2025

                                  _update_score 253A                                              l61 127A  
                                            l80 2A48                                              l65 1348  
                                            l76 29FE                                              bsr 0FE0  
                                _update_display 1662                      __end_ofi1_generate_garbage 24BA  
                                           l122 29A2                                             l124 29EE  
                                           l140 16F6                                             l134 270E  
                                           l119 2BA8                                             l143 1780  
                                           l128 2AD2                                             l208 0E02  
                                           l129 2AD8                                             l145 17C4  
                                           l137 166C                                             l219 18FE  
                                           l253 2174                                             l229 1C66  
                                           l182 25B0                                             l246 0A26  
                                           l318 082E                                             l281 0FE0  
                                           l426 20A8                                             l291 242C  
                                           l268 1D7A                                             l189 269A  
                                           l358 284C                                             l286 2A90  
                                           l359 285C                                             l591 22EE  
                          __end_of_check_inputs 0830                   __end_ofi1_check_for_full_rows 0C18  
                                  ___awmod@sign 00F7                        check_for_full_rows@j_943 01E1  
                      check_for_full_rows@j_944 01DD                                             tosl 0FFD  
                                           wreg 0FE8                                _block_location_x 0052  
                              _block_location_y 0050                                            l1042 27F0  
                                          l1034 2B12                                            l1028 119E  
                                          l1039 2B92                                            l4000 2A96  
                                          l4010 2AB0                                            l4002 2A98  
                                          l4012 2AB6                                            l4030 0C94  
                                          l4022 0C36                                            l4014 0C1C  
                                          l4110 1FB0                                            l4008 2AA2  
                                          l4040 0CE6                                            l4032 0CA6  
                                          l4016 0C2C                                            l4120 1FE6  
                                          l4112 1FC0                                            l4050 0D12  
                                          l4034 0CAA                                            l4026 0C62  
                                          l4130 202E                                            l4122 1FF6  
                                          l4114 1FC4                                            l4106 1F9E  
                                          l4060 0D76                                            l4052 0D1E  
                                          l4028 0C74                                            l4036 0CC6  
                                          l4140 2072                                            l4132 2038  
                                          l4124 200C                                            l4116 1FD2  
                                          l4108 1FA2                                            l4300 16DA  
                                          l4062 0D88                                            l4054 0D2E  
                                          l4070 0DC4                                            l4046 0CEE  
                                          l4038 0CCA                                            l4134 2056  
                                          l4126 2014                                            l4142 2078  
                                          l4118 1FE2                                            l4150 11A0  
                                          l4310 1742                                            l4302 16F8  
                                          l4080 23BC                                            l4072 0DE2  
                                          l4064 0DA8                                            l4056 0D40  
                                          l4048 0D06                                            l4400 063A  
                                          l4144 2088                                            l4136 2066  
                                          l4128 2020                                            l4160 1234  
                                          l4152 11A8                                            l4320 17A2  
                                          l4312 1760                                            l4090 2408  
                                          l4082 23DA                                            l4074 0DE6  
                                          l4066 0DBA                                            l4058 0D60  
                                          l4402 064C                                            l4410 067A  
                                          l4330 0E0E                                            l4146 2098  
                                          l4138 2068                                            l4170 132A  
                                          l4162 1242                                            l4154 11DE  
                                          l4322 17A8                                            l4314 1764  
                                          l4260 2BA0                                            l3700 2252  
                                          l4092 240C                                            l4084 23EA  
                                          l4076 239E                                            l4068 0DBE  
                                          l4420 06C0                                            l4412 068E  
                                          l4404 065A                                            l4340 0E94  
                                          l4324 0E04                                            l4180 1338  
                                          l4172 132E                                            l4164 1288  
                                          l4156 1218                                            l4316 1782  
                                          l4308 1700                                            l4500 1A5A  
                                          l4270 26D8                                            l4262 2BA2  
                                          l4254 2B94                                            l3710 2286  
                                          l3702 225A                                            l4094 2410  
                                          l4086 23FE                                            l4078 23BC  
                                          l4430 070C                                            l4422 06D4  
                                          l4414 069C                                            l4406 0660  
                                          l4342 0EB0                                            l4182 133A  
                                          l4174 1332                                            l4166 12BE  
                                          l4158 1226                                            l4190 2A22  
                                          l4318 17A0                                            l4510 1A84  
                                          l4502 1A5C                                            l4280 26F2  
                                          l4264 2BA4                                            l4256 2B9C  
                                          l3720 22C2                                            l3712 228E  
                                          l3704 225E                                            l3640 2812  
                                          l4096 2424                                            l4088 2404  
                                          l4432 071E                                            l4440 074A  
                                          l4416 06AC                                            l4424 06DA  
                                          l4408 0674                                            l4360 0EFE  
                                          l4352 0ED8                                            l4344 0EB4  
                                          l4336 0E16                                            l4184 133C  
                                          l4176 1334                                            l4168 12F6  
                                          l4192 2A26                                            l4512 1A8C  
                                          l4504 1A5E                                            l4266 2BA6  
                                          l4258 2B9E                                            l3722 22C8  
                                          l3714 2296                                            l3706 226C  
                                          l3642 2822                                            l3810 1BC6  
                                          l4098 2428                                            l4450 079C  
                                          l4442 075E                                            l4434 072C  
                                          l4426 06EE                                            l4418 06BA  
                                          l4362 0F24                                            l4370 0FA0  
                                          l4346 0ED0                                            l4338 0E90  
                                          l4178 1336                                            l4186 29F0  
                                          l4282 1662                                            l4530 1AD4  
                                          l4522 1AA4                                            l4514 1A94  
                                          l4506 1A60                                            l3740 29D0  
                                          l3732 2998                                            l4276 26E2  
                                          l4268 269C                                            l3716 22A4  
                                          l3724 22CE                                            l3708 2274  
                                          l3660 2586                                            l3644 282C  
                                          l3636 27F2                                            l3820 1C46  
                                          l3812 1BD4                                            l3804 1B66  
                                          l4460 07DC                                            l4452 07A0  
                                          l4444 076C                                            l4436 0732  
                                          l4428 06FC                                            l4372 0FA4  
                                          l4364 0F40                                            l4380 2A4E  
                                          l4188 2A0C                                            l4540 1B14  
                                          l4532 1AD8                                            l4524 1AB2  
                                          l4516 1A9E                                            l4508 1A7A  
                                          l3742 29D6                                            l4278 26EC  
                                          l3726 22DE                                            l3718 22BA  
                                          l3662 2594                                            l3654 2554  
                                          l3646 253A                                            l3830 083A  
                                          l3638 2804                                            l3910 2154  
                                          l3902 20C8                                            l3822 1C4A  
                                          l3814 1BF0                                            l3806 1B84  
                                          l4462 07EC                                            l4454 07B4  
                                          l4446 077C                                            l4438 0746  
                                          l4374 0FC0                                            l4366 0F4E  
                                          l4358 0EE0                                            l4390 2A74  
                                          l4382 2A62                                            l4470 2B78  
                                          l4294 1676                                            l4550 1B48  
                                          l4542 1B1C                                            l4534 1ADC  
                                          l4526 1AB6                                            l3744 29D8  
                                          l3728 22E6                                            l3664 2598  
                                          l3656 256A                                            l3648 2542  
                                          l3840 088E                                            l3824 0830  
                                          l3760 17D8                                            l3680 263A  
                                          l3920 1CA6                                            l3912 2170  
                                          l3904 2130                                            l3808 1BAA  
                                          l3816 1C26                                            l4464 07FE  
                                          l4448 078E                                            l4456 07BA  
                                          l4376 0FC4                                            l4368 0F6A  
                                          l4392 2A88                                            l4384 2A68  
                                          l4296 16B8                                            l4288 166E  
                                          l4544 1B20                                            l4536 1AE0  
                                          l4528 1AC6                                            l4480 1A42  
                                          l3746 29E0                                            l3738 29A4  
                                          l3666 259E                                            l3658 2572  
                                          l3842 0892                                            l3770 1870  
                                          l3762 17F6                                            l3754 17D0  
                                          l3690 2782                                            l3682 265A  
                                          l3674 2632                                            l3930 1CE2  
                                          l3922 1CAC                                            l3914 1C68  
                                          l3906 2134                                            l3818 1C2A  
                                          l4466 080C                                            l4458 07CE  
                                          l4394 2A8C                                            l4386 2A6C  
                                          l4378 2A4A                                            l4298 16D6  
                                          l4546 1B32                                            l4538 1B0C  
                                          l4490 1A4C                                            l4482 1A44  
                                          l3860 095A                                            l3844 08AE  
                                          l3836 0846                                            l3764 181C  
                                          l3780 18BC                                            l3748 17C6  
                                          l3692 27C2                                            l3684 265E  
                                          l3668 2628                                            l3940 1D16  
                                          l3932 1CEA                                            l3924 1CBE  
                                          l3916 1C8A                                            l3908 2150  
                                          l4468 081A                                            l4396 061C  
                                          l4388 2A70                                            l4548 1B36  
                                          l4492 1A4E                                            l4484 1A46  
                                          l4476 1A38                                            l3870 0990  
                                          l3854 08D2                                            l3862 0960  
                                          l3846 08BE                                            l3838 0888  
                                          l3782 18C0                                            l3774 1876  
                                          l3766 1838                                            l3686 267A  
                                          l3950 1D56                                            l3942 1D2A  
                                          l3934 1CF2                                            l3926 1CC6  
                                          l3918 1C9E                                            l4398 062A  
                                          l4494 1A50                                            l4486 1A48  
                                          l4478 1A40                                            l3696 2240  
                                          l3880 09C6                                            l3872 099E  
                                          l3864 0988                                            l3856 093A  
                                          l3848 08CA                                            l3784 18DC  
                                          l3768 1854                                            l3688 267E  
                                          l3952 1D5E                                            l3944 1D32  
                                          l3936 1D06                                            l3928 1CCE  
                                          l3960 0FE2                                            l3792 1B54  
                                          l4496 1A52                                            l4488 1A4A  
                                          l3698 2244                                            l3882 09F0  
                                          l3874 09A2                                            l3858 093E  
                                          l3786 18E0                                            l3954 1D66  
                                          l3946 1D3A                                            l3938 1D0E  
                                          l3970 10EE                                            l3962 0FFC  
                                          l3890 20AA                                            l4498 1A56  
                                          l3884 0A00                                            l3876 09BE  
                                          l3788 18FC                                            l3948 1D4E  
                                          l3956 1D6A                                            l3972 110C  
                                          l3980 1150                                            l3964 1004  
                                          l3878 09C2                                            l3886 0A04  
                                          l3958 1D72                                            l3990 1184  
                                          l3982 1162                                            l3974 1120  
                                          l3966 100C                                            l3798 1B5E  
                                          l3888 0A0A                                            l3984 1170  
                                          l3976 1126                                            l3968 1060  
                                          l3992 2ADA                                            l3896 20C0  
                                          l3986 1174                                            l3978 1132  
                                          l3994 2AE6                                            l3988 1180  
                                          l3996 2AF2                                   _compose_board 0E04  
                                          l3998 2AF6                                            STR_1 060F  
                                          STR_2 0601                                            u4000 269A  
                                          _LATD 0F8C                                            u4001 2696  
                                          u4010 27E2                                            u4020 2252  
                                          u4100 17F6                                            u4021 224E  
                                          u4101 17F2                                            u4030 226C  
                                          u4110 181C                                            u4031 2268  
                                          u4111 1818                                            u4015 27D8  
                                          u4040 2286                                            u4120 1838  
                                          u4200 1BC6                                            u5000 0EB0  
                                          u4041 2282                                            u4121 1834  
                                          u4201 1BC2                                            u5001 0EAC  
                                          u4050 22A4                                            u4130 1854  
                                          u4210 1BD4                                            u5010 0ED0  
                                          u4051 22A0                                            u4131 1850  
                                          u4211 1BD0                                            u5011 0ECC  
                                          u4060 22BA                                            u4300 09BE  
                                          u4140 1870                                            u4220 1BF0  
                                          u5020 0EFE                                            u5100 2A88  
                                          u4061 22B6                                            u4301 09BA  
                                          u4141 186C                                            u4221 1BEC  
                                          u5021 0EFA                                            u5101 2A84  
                                          u4070 22DE                                            u4310 09F0  
                                          u4150 18B8                                            u4230 1C46  
                                          u5110 062A                                            u5030 0F24  
                                          u4071 22DA                                            u4311 09EC  
                                          u4151 18B4                                            u4231 1C42  
                                          u5111 0626                                            u5031 0F20  
                                          u4320 0A00                                            u4160 18DC  
                                          u4400 1D2A                                            u4240 1C66  
                                          u5200 06EA                                            u5120 063A  
                                          u5040 0F40                                            u4321 09FC  
                                          u4161 18D8                                            u4401 1D26  
                                          u4241 1C62                                            u5201 06E4  
                                          u5121 0636                                            u5041 0F3C  
                                          u4090 29EE                                            u4330 0A26  
                                          u4250 0888                                            u4170 18FC  
                                          u4410 1D4E                                            u5210 06FC  
                                          u5130 065A                                            u5050 0F4E  
                                          u4091 29EA                                            u4331 0A22  
                                          u4251 0884                                            u4171 18F8  
                                          u4411 1D4A                                            u5211 06F8  
                                          u5131 0656                                            u5051 0F4A  
                                          u4084 29B6                                            u4260 08AE  
                                          u4420 1060                                            u4340 2150  
                                          u4180 1B84                                            u4500 0C5E  
                                          u5300 07CA                                            u5220 070C  
                                          u5140 0674                                            u5060 0F6A  
                                          u4085 29B2                                            u4261 08AA  
                                          u4421 105C                                            u4341 214C  
                                          u4181 1B80                                            u4501 0C5A  
                                          u5301 07C4                                            u5221 0708  
                                          u5141 0670                                            u5061 0F66  
                                          u4270 08BE                                            u4430 10EE  
                                          u4350 2170                                            u4190 1BAA  
                                          u4510 0CC6                                            u5310 07DC  
                                          u5230 072C                                            u5206 06EC  
                                          u5150 068A                                            u5070 0FC0  
                                          u4271 08BA                                            u4431 10EA  
                                          u4351 216C                                            u4191 1BA6  
                                          u4511 0CC2                                            u5311 07D8  
                                          u5231 0728                                            u5151 0684  
                                          u5071 0FBC                                            u4280 095A  
                                          u4360 1C9E                                            u4440 114C  
                                          u4520 0CE6                                            u5320 07EC  
                                          u5240 0746                                            u5160 069C  
                                          u5080 0FE0                                            u4600 1FB0  
                                          u4281 0956                                            u4361 1C9A  
                                          u4441 1148                                            u4521 0CE2  
                                          u5321 07E8                                            u5241 0742  
                                          u5161 0698                                            u5081 0FDC  
                                          u4601 1FAC                                            u4290 0988  
                                          u4370 1CBE                                            u4450 1162  
                                          u4530 0D06                                            u5330 080C  
                                          u5306 07CC                                            u5250 075A  
                                          u5170 06AC                                            u5090 2A62  
                                          u4610 1FD2                                            u4291 0984  
                                          u4371 1CBA                                            u4451 115E  
                                          u4531 0D02                                            u5331 0808  
                                          u5251 0754                                            u5171 06A8  
                                          u5091 2A5E                                            u4611 1FCE  
                                          u4380 1CE2                                            u4460 119E  
                                          u4540 0D2E                                            u5340 082A  
                                          u5260 076C                                            u5180 06BA  
                                          u5156 068C                                            u4620 200C  
                                          u4700 1242                                            u4381 1CDE  
                                          u4461 119A                                            u4541 0D2A  
                                          u5341 0824                                            u5261 0768  
                                          u5181 06B6                                            u4621 2008  
                                          u4701 123E                                            u4390 1D06  
                                          u4470 2B12                                            u4550 0DE2  
                                          u5270 077C                                            u5190 06D4  
                                          u4630 202E                                            u4710 1288  
                                          u5350 1AC6                                            u4391 1D02  
                                          u4471 2B0E                                            u4551 0DDE  
                                          u5407 0784                                            u5271 0778  
                                          u5191 06D0                                            u4631 202A  
                                          u4711 1284                                            u5351 1AC2  
                                          u4480 2AD2                                            u4560 0E02  
                                          u5280 079C                                            u5256 075C  
                                          u4640 2056                                            u4720 1298  
                                          u5360 1B48                                            u4481 2ACE  
                                          u4561 0DFE                                            u5417 07F4  
                                          u5281 0798                                            u4641 2052  
                                          u4721 1292                                            u5361 1B44  
                                          u4570 23FE                                            u4490 0C2C  
                                          u5346 082C                                            u5290 07B4  
                                          u4650 2088                                            u4730 12AC  
                                          u4722 129A                                            u4571 23FA  
                                          u4491 0C28                                            u5291 07B0  
                                          u4651 2084                                            u4731 12A6  
                                          u4900 270E                                            u4580 2424  
                                          u4740 12BE                                            u4732 12AE  
                                          u4660 1206                                            u4901 270A  
                                          u4581 2420                                            u4741 12BA  
                                          u4661 11FE                                            u3950 2812  
                                          u4910 16B8                                            i1l71 2BBE  
                                          u3951 280E                                            u4911 16B4  
                                          u3960 284C                                            u4680 1226  
                                          u4760 2A0C                                            u3961 2848  
                                          u4681 1222                                            u4761 2A08  
                                          u5377 1B28                                            u3970 256A  
                                          u4690 1234                                            u4770 2A48  
                                          u4930 16F6                                            i1l83 2BD2  
                                          u3971 2566                                            u5387 0642  
                                          u4755 1346                                            u4691 1230  
                                          u4771 2A44                                            u4931 16F2  
                                          i1l68 2BAC                                            u3980 25B0  
                                          u4756 1348                                            u4940 1742  
                                          u4924 16CA                                            u3981 25AC  
                                          u5397 0714                                            u4941 173E  
                                          u4925 16C6                                            i1l86 2BE2  
                                          u3990 267A                                            u4678 120A  
                                          u3991 2676                                            u4960 1780  
                                          u4961 177C                                            u4970 17C4  
                                          u4954 1754                                            u4971 17C0  
                                          u4955 1750                                            u4980 0E8C  
                                          u4981 0E86                                            u4990 0E8E  
                                          _main 1A38                                            _rand 2782  
                                          _seed 005B                                            fsr1h 0FE2  
                                          fsr2h 0FDA                                            indf1 0FE7  
                                          indf2 0FDF                                            fsr1l 0FE1  
                                          fsr2l 0FD9                                            btemp 0071  
                        i1drop_block_from_sky@r 0019                                            prodh 0FF4  
                                          prodl 0FF3                                            start 007A  
                                  ___param_bank 0000                __end_ofi1_solidify_current_block 1E8E  
                        __end_of_update_display 17C6                      i1check_for_full_rows@j_943 002A  
                    i1check_for_full_rows@j_944 0026                                  i1_update_score 25B2  
                      rotate_current_block@temp 00E2                  check_for_full_rows@row_is_full 01D8  
                               __end_of___aldiv 20AA                                           ?_main 0001  
                                         ?_rand 00EC                                 __end_of___awmod 22F0  
                                         i1l105 14DC                                           i1l114 14E8  
                              __end_of_MCU_Init 2BAA                                           i1l331 2BE4  
                                         i1l219 1A36                                           i1l324 004A  
                                         i1l253 223E                                           i1l229 1E8C  
                                         i1l182 2626                                           i1l246 0C16  
                                         i1l328 2B76                                           i1l291 24B8  
                                         i1l268 1F9C                                           i1l189 2780  
                                         i1l358 2922                                           i1l359 2932  
                                         i1l591 239C                                           _RCREG 0FAE  
                                         _SPBRG 0FAF                                           _TXREG 0FAD  
                                    i1memmove@c 0019                                      i1memmove@d 001D  
                                    i1memmove@n 0005                             ___lmul@multiplicand 00E4  
                                    i1memmove@s 001A                              set_current_block@b 00E0  
                            set_current_block@i 00E1                              set_current_block@j 00E3  
                                i1___awmod@sign 0018                                           _board 0200  
                                ?_compose_board 0001                                 __end_of_memmove 11A0  
                                         _score 004E                                           _srand 2B78  
                                         main@t 01E7                                __end_ofi1___lmul 2934  
                                         pclath 0FFA                                           pclatu 0FFB  
                                         tablat 0FF5                            __end_of_MAX7219_Init 2710  
                                         ttemp5 0072                                           ttemp6 0075  
                                         ttemp7 0079                          i1check_for_full_rows@i 0028  
                        i1check_for_full_rows@j 0022                          i1check_for_full_rows@n 0024  
                                         status 0FD8                                           wtemp8 0072  
                              __end_ofi1_memset 2B4C                            drop_block_from_sky@r 00F8  
                              _generate_garbage 239E                                  _SPI_Write_Byte 2994  
                               __initialization 24BA                    __end_of_processSerialReceive 14EA  
                                  __end_of_main 1B54                                    __end_of_rand 27F2  
                           _drop_block_from_sky 1C68                          __end_ofi1_update_score 2628  
                           i1___lmul@multiplier 0001                                     onReadChar@c 0001  
                               ?_update_display 0001                                          ??_main 01E6  
                                        ??_rand 00EE                                   __activetblptr 0002  
                         update_display@col_884 00ED         i1current_block_is_in_illegal_position@i 0009  
         current_block_is_in_illegal_position@i 00E8         i1current_block_is_in_illegal_position@j 000B  
         current_block_is_in_illegal_position@j 00EA         i1current_block_is_in_illegal_position@x 0005  
         current_block_is_in_illegal_position@x 00E4         i1current_block_is_in_illegal_position@y 0007  
         current_block_is_in_illegal_position@y 00E6                            ?_drop_block_from_sky 0001  
                                        _ADCON1 0FC1                                          ?_srand 00E0  
                                onReadLine@line 002E                                          i1l1042 28C8  
                                        i1l1034 2B4A                                          i1l1028 1660  
                                        i1l2400 2764                                          i1l2410 230C  
                                        i1l2402 22F0                                          i1l3050 242E  
                                        i1l2420 2344                                          i1l2412 231A  
                                        i1l2404 22F2                                          i1l2340 28DA  
                                        i1l3060 248A                                          i1l3052 244A  
                                        i1l4100 2B4C                                          i1l2422 2352  
                                        i1l2430 237C                                          i1l2414 2322  
                                        i1l2406 2300                                          i1l2342 28E8  
                                        i1l3070 24B0                                          i1l3062 2490  
                                        i1l3054 244A                                          i1l4102 2B66  
                                        i1l2432 238C                                          i1l2424 2368  
                                        i1l2416 2334                                          i1l2408 2308  
                                        i1l2360 25BA                                          i1l2344 28F8  
                                        i1l2440 289A                                          i1l2600 1E50  
                                        i1l3072 24B4                                          i1l3064 2494  
                                        i1l3056 2466                                          i1l4104 2B72  
                                        i1l3080 2BE0                                          i1l4200 136C  
                                        i1l2434 2394                                          i1l2426 2370  
                                        i1l2418 233C                                          i1l2370 25E8  
                                        i1l2530 1900                                          i1l2346 2902  
                                        i1l2338 28CA                                          i1l2602 1E6C  
                                        i1l3066 2498                                          i1l3058 2476  
                                        i1l3074 2BAC                                          i1l4210 1398  
                                        i1l4202 1372                                          i1l2428 2376  
                                        i1l2372 25FC                                          i1l2620 0A7E  
                                        i1l2612 0A30                                          i1l2380 2710  
                                        i1l2700 1EC0                                          i1l2604 1E70  
                                        i1l3068 249C                                          i1l3076 2BBA  
                                        i1l4212 13AA                                          i1l2374 260A  
                                        i1l2366 25CA                                          i1l2358 25B2  
                                        i1l2630 0AC0                                          i1l2622 0A84  
                                        i1l2606 0A28                                          i1l2550 198C  
                                        i1l2542 1910                                          i1l2438 285E  
                                        i1l2710 1EF0                                          i1l2702 1EC8  
                                        i1l3078 2BD2                                          i1l4230 1444  
                                        i1l4222 13F6                                          i1l4214 13BE  
                                        i1l4206 1384                                          i1l2376 260E  
                                        i1l2368 25E0                                          i1l2640 0B34  
                                        i1l2624 0A88                                          i1l2552 19A8  
                                        i1l2544 192E                                          i1l2536 1908  
                                        i1l2392 2720                                          i1l2720 1F30  
                                        i1l2712 1F04                                          i1l2704 1ECE  
                                        i1l4240 14A0                                          i1l4232 145A  
                                        i1l4224 13FC                                          i1l4216 13D0  
                                        i1l2378 2614                                          i1l2642 0B50  
                                        i1l2626 0AA4                                          i1l2618 0A3C  
                                        i1l2570 1A34                                          i1l2546 1954  
                                        i1l2562 19F4                                          i1l2394 2740  
                                        i1l2386 2718                                          i1l2730 1F70  
                                        i1l2722 1F38                                          i1l2714 1F0C  
                                        i1l2706 1EE0                                          i1l4242 14B0  
                                        i1l4234 146E                                          i1l4226 140A  
                                        i1l4218 13E0                                          i1l4250 14E6  
                                        i1l2660 0BB8                                          i1l2652 0B86  
                                        i1l2636 0AC8                                          i1l2644 0B56  
                                        i1l2628 0AB4                                          i1l2564 19F8  
                                        i1l2556 19AE                                          i1l2548 1970  
                                        i1l2396 2744                                          i1l2740 1F94  
                                        i1l2732 1F78                                          i1l2724 1F4C  
                                        i1l2716 1F14                                          i1l2708 1EE8  
                                        i1l2580 1D84                                          i1l4236 148A  
                                        i1l4228 141E                                          i1l4244 14B6  
                                        i1l2670 0BFA                                          i1l2662 0BBC  
                                        i1l2654 0B94                                          i1l2646 0B7E  
                                        i1l2638 0B30                                          i1l2566 1A14  
                                        i1l2398 2760                                          i1l2734 1F80  
                                        i1l2726 1F54                                          i1l2718 1F28  
                                        i1l2750 1550                                          i1l2742 14EA  
                                        i1l2590 1DD0                                          i1l2574 1D7C  
                                        i1l4238 149A                                          i1l4246 14E0  
                                        i1l2664 0BE2                                          i1l2656 0B98  
                                        i1l2568 1A18                                          i1l2736 1F88  
                                        i1l2728 1F5C                                          i1l2760 15FA  
                                        i1l2752 15C6                                          i1l2744 1502  
                                        i1l2672 2176                                          i1l2592 1DEC  
                                        i1l2666 0BF2                                          i1l2658 0BB4  
                                        i1l2738 1F8C                                          i1l2770 1644  
                                        i1l2754 15D6                                          i1l2762 1616  
                                        i1l2746 150A                                          i1l2690 221A  
                                        i1l2594 1DFA                                          i1l2586 1D8C  
                                        i1l4194 134A                                          i1l2668 0BF6  
                                        i1l2772 1648                                          i1l2764 1628  
                                        i1l2756 15E8                                          i1l2748 1512  
                                        i1l2780 2B30                                          i1l2692 221E  
                                        i1l2684 2192                                          i1l2596 1E16  
                                        i1l2588 1DAA                                          i1l4196 1358  
                                        i1l2766 1634                                          i1l2758 15EE  
                                        i1l2774 2B14                                          i1l2694 223A  
                                        i1l2686 21FA                                          i1l2678 218A  
                                        i1l2598 1E4C                                          i1l4198 1366  
                                        i1l2696 1E8E                                          i1l2768 1638  
                                        i1l2776 2B20                                          i1l2688 21FE  
                                        i1l4472 0046                                          i1l2698 1EAE  
                                        i1l2778 2B2C                                          _OSCCON 0FD3  
                                        _SPBRGH 0FB0                            check_for_full_rows@i 01DF  
                          check_for_full_rows@j 01D9                            check_for_full_rows@n 01DB  
                                        i1_rand 285E                          __end_of_SPI_Write_Byte 29F0  
                                  ?_serialBegin 00EE                                          _Lo_ISR 0018  
                                   i1memmove@d1 0001                                     i1memmove@s1 0003  
                                  ?_serialPrint 00E0                                    ?_serialWrite 0001  
                                        ___lmul 27F2                                       ??___aldiv 00E8  
                               ?i1_update_score 0001                                       ??___awmod 00F6  
                                        _memset 2ADA                                          clear_0 2500  
                                        clear_1 250C                                          clear_2 2526  
                               ___awmod@divisor 00F4                                          isa$std 0001  
                      i1_solidify_current_block 1D7C                                 ___awmod@counter 00F6  
                             __end_ofi1___awmod 239E                              MAX7219_Write_All@i 00E7  
                                  __pdataCOMRAM 005F                                       ??_memmove 00E6  
                                  __mediumconst 0600                             i1_set_current_block 2710  
                               ??_compose_board 00E0                                    i1_reset_game 2176  
                                        tblptrh 0FF7                                          tblptrl 0FF6  
                                        tblptru 0FF8                                          srand@s 00E0  
                         ??_drop_block_from_sky 00F8                               __end_ofi1_memmove 1662  
                                    __accesstop 0080                         __end_of__initialization 252C  
                                 ___rparam_used 0001                                 ?_SPI_Write_Byte 0001  
                                  _check_inputs 061C                   __end_ofi1_drop_block_from_sky 1F9E  
                                     ?_MCU_Init 0001                            ?i1_set_current_block 0001  
           serialBegin@receiveInterruptPriority 00F2                        ??_solidify_current_block 00E0  
                                __pcstackCOMRAM 0001                                    __pidataBANK0 2934  
                                 __end_of_srand 2B94                                       ?i1___lmul 0001  
                                     ?i1_memset 0001                                   update_score@i 00E4  
                                 update_score@n 00E2                                   update_score@x 00E0  
                          _processSerialReceive 134A                                         ??_srand 00E2  
                                 _current_block 003E                                      __pbssBANK0 00FA  
                                    __pbssBANK1 0100                                      __pbssBANK2 0200  
                            i1_generate_garbage 242E                     __end_of_check_for_full_rows 0A28  
                                       ?i1_rand 000D                                         ?_Lo_ISR 0001  
                         ??i1_set_current_block 0002                                      ??_MCU_Init 00E0  
                           ?i1_generate_garbage 002C                                         ?___lmul 00E0  
                                       ?_memset 00E0                                  ___lmul@product 00E8  
                                    ??i1___lmul 0009                                    _MAX7219_Init 269C  
                         processSerialReceive@c 0032                                      ??i1_memset 0007  
                          ??i1_generate_garbage 002E                          update_display@row_addr 00EF  
                      __end_of_generate_garbage 242E                           ?_processSerialReceive 0001  
                         i1_check_for_full_rows 0A28                                    _gap_position 00FA  
                                  i1memset@dest 0001                       update_display@pattern_bot 00E9  
                             __end_of_game_step 2A92                       update_display@pattern_top 00EA  
                                    _onReadChar 2BE4                                ??_update_display 00E5  
                                    _onReadLine 2B4C                               _MAX7219_Write_All 2A92  
                                       __Hparam 0000                                         __Lparam 0000  
                            ?_MAX7219_Write_All 00E5                              compose_board@i_955 00F0  
                            compose_board@j_956 00F2                                         ___aldiv 1F9E  
                                       ___awmod 2240                                    __psmallconst 0600  
                                       __pcinit 24BA                                         __ramtop 0600  
                                       _block_I 0061                                         _block_J 0090  
                                       _block_L 0080                                         _block_O 00D0  
                                       _block_S 00B0                                         _block_T 00C0  
                                       _block_Z 00A0                                         __ptext0 1A38  
                                       __ptext1 1662                                         __ptext2 2B78  
                                       __ptext3 29F0                                         __ptext4 11A0  
                                       __ptext5 1F9E                                         __ptext6 2A4A  
                                       __ptext7 0E04                                         __ptext8 061C  
                                       __ptext9 0C18                             ??_MAX7219_Write_All 00E6  
                                   reset_game@i 00EA                                     reset_game@j 00EC  
                                       _memmove 0FE2                                ___awmod@dividend 00F2  
                              ___aldiv@dividend 00E0                                  _serialLastChar 0059  
                                       main@row 01E8                            end_of_initialization 252C  
                               i1update_score@i 0005                                 i1update_score@n 0003  
                               i1update_score@x 0001                      generate_garbage@line_count 01E3  
                  serialBegin@baudRateGenerator 00F4                                         memset@c 00E2  
                                       memset@n 00E4                                         memset@p 00E6  
                                 __Lmediumconst 0000                       __end_of_MAX7219_Write_All 2ADA  
                              ??i1_update_score 0001                                      _reset_game 20AA  
                    ??i1_solidify_current_block 0001                                      _serialRead 2BD2  
                                     _RCSTAbits 0FAB                                ___aldiv@quotient 00EA  
                                       postdec1 0FE5                                         postinc0 0FEE  
                                       postinc2 0FDE                                       _PORTBbits 0F81  
                        ??_processSerialReceive 0032                          ?i1_check_for_full_rows 0001  
                                     _TRISBbits 0F93                                       _TRISCbits 0F94  
                                     _TRISDbits 0F95                          _solidify_current_block 1B54  
                                     i1___awmod 22F0                                ??_SPI_Write_Byte 00E0  
                  __end_of_rotate_current_block 0E04                                       _TXSTAbits 0FAC  
                                     i1_memmove 14EA                                     ?_onReadChar 0001  
                                   ?_onReadLine 002E                                  __end_ofi1_rand 28CA  
                                __end_of_Lo_ISR 007A                                   ?_update_score 0001  
                                __end_of___lmul 285E                                     _BAUDCONbits 0FB8  
                                     i1memset@c 0003                                       i1memset@n 0005  
                                     i1memset@p 0007                                   __pidataCOMRAM 2BC0  
                              _game_speed_ticks 0060                     __end_of_drop_block_from_sky 1D7C  
                                __end_of_memset 2B14                           i1___lmul@multiplicand 0005  
                           start_initialization 24BA                         solidify_current_block@i 00E8  
                       solidify_current_block@j 00EA                         solidify_current_block@x 00E4  
                       solidify_current_block@y 00E6                                      ?i1___awmod 0013  
                             update_display@col 00EB                           __end_of_compose_board 0FE2  
                  rotate_current_block@temp_926 00E3                    rotate_current_block@temp_927 00E4  
                     i1solidify_current_block@i 0009                       i1solidify_current_block@j 000B  
                     i1solidify_current_block@x 0005                       i1solidify_current_block@y 0007  
                                 onReadLine@len 0030                                      ?i1_memmove 0001  
                                      ??i1_rand 000F                                        ??_Lo_ISR 0033  
                           serialBegin@baudRate 00EE                                     ?_reset_game 0001  
                                   ?_serialRead 0001                                  ??_update_score 00E0  
                         i1_drop_block_from_sky 1E8E                                        ??___lmul 00E8  
                               SPI_Write_Byte@i 00E3                                     __pdataBANK0 0080  
                            i1___awmod@dividend 0013                                        ??_memset 00E6  
                                    memset@dest 00E0                                     __pbssCOMRAM 003E  
                                 __pcstackBANK0 00E0                                   __pcstackBANK1 01D0  
                             ?_generate_garbage 01E3                              ??_generate_garbage 00FA  
                              i1___lmul@product 0009                    i1generate_garbage@line_count 002C  
                   __end_ofi1_set_current_block 2782                                       _game_step 2A4A  
                                      ?___aldiv 00E0                               _serialPrintfCache 0100  
                                      ?___awmod 00F2                                     __pintcodelo 0018  
                                 MAX7219_Init@i 00E9                            _rotate_current_block 0C18  
                                   __smallconst 0600                                        ?_memmove 00E0  
                                   ??i1___awmod 0017                                  compose_board@i 00EC  
                                compose_board@j 00EE                                  compose_board@x 00E8  
                                compose_board@y 00EA                                 ___aldiv@divisor 00E4  
                               ___aldiv@counter 00E8                                        _LATCbits 0F8B  
                                      _LATDbits 0F8C                                     ??i1_memmove 0007  
                                 ??_serialBegin 00F3                                        _IPR1bits 0F9F  
                                      _PIE1bits 0F9D                                        i1u210_20 2368  
                                      i1u202_20 25E0                                        i1u210_21 2364  
                                      i1u202_21 25DC                                        i1u211_20 238C  
                                      i1u203_20 2626                                        i1u211_21 2388  
                                      i1u203_21 2622                                        i1u212_20 28BA  
                                      i1u204_20 2760                                        i1u204_21 275C  
                                      i1u212_25 28B0                                        i1u205_20 2780  
                                      i1u205_21 277C                                        i1u206_20 2300  
                                      i1u230_20 1A14                                        i1u302_20 248A  
                                      i1u206_21 22FC                                        i1u230_21 1A10  
                                      i1u302_21 2486                                        i1u207_20 231A  
                                      i1u231_20 1A34                                        i1u303_20 24B0  
                                      i1u207_21 2316                                        i1u231_21 1A30  
                                      i1u303_21 24AC                                        i1u208_20 2334  
                                      i1u240_20 0AA4                                        i1u224_20 192E  
                                      i1u232_20 1DAA                                        i1u304_20 2BBA  
                                      i1u208_21 2330                                        i1u240_21 0AA0  
                                      i1u224_21 192A                                        i1u232_21 1DA6  
                                      i1u304_21 2BB6                                        i1u209_20 2352  
                                      i1u241_20 0AB4                                        i1u225_20 1954  
                                      i1u233_20 1DD0                                        i1u305_20 2BE0  
                                      i1u209_21 234E                                        i1u241_21 0AB0  
                                      i1u225_21 1950                                        i1u233_21 1DCC  
                                      i1u305_21 2BDC                                        i1u242_20 0B50  
                                      i1u226_20 1970                                        i1u250_20 1EC0  
                                      i1u234_20 1DEC                                        i1u242_21 0B4C  
                                      i1u226_21 196C                                        i1u250_21 1EBC  
                                      i1u234_21 1DE8                                        i1u243_20 0B7E  
                                      i1u227_20 198C                                        i1u251_20 1EE0  
                                      i1u235_20 1DFA                                        i1u243_21 0B7A  
                                      i1u227_21 1988                                        i1u251_21 1EDC  
                                      i1u235_21 1DF6                                        i1u244_20 0BB4  
                                      i1u228_20 19A8                                        i1u252_20 1F04  
                                      i1u260_20 1660                                        i1u236_20 1E16  
                                      i1u244_21 0BB0                                        i1u228_21 19A4  
                                      i1u252_21 1F00                                        i1u260_21 165C  
                                      i1u236_21 1E12                                        i1u245_20 0BE2  
                                      i1u229_20 19F0                                        i1u253_20 1F28  
                                      i1u261_20 2B4A                                        i1u237_20 1E6C  
                                      i1u245_21 0BDE                                        i1u229_21 19EC  
                                      i1u253_21 1F24                                        i1u261_21 2B46  
                                      i1u237_21 1E68                                        i1u246_20 0BF2  
                                      i1u254_20 1F4C                                        i1u238_20 1E8C  
                                      i1u246_21 0BEE                                        i1u254_21 1F48  
                                      i1u238_21 1E88                                        i1u247_20 0C16  
                                      i1u239_20 0A7E                                        i1u255_20 1F70  
                                      i1u247_21 0C12                                        i1u239_21 0A7A  
                                      i1u255_21 1F6C                                   ??_serialPrint 00E1  
                                      i1u256_20 1550                                        i1u248_20 221A  
                                      i1u256_21 154C                                        i1u248_21 2216  
                                      _MCU_Init 2B94                                        i1u257_20 15C6  
                                      i1u249_20 223A                                        i1u257_21 15C2  
                                      i1u249_21 2236                                        i1u258_20 1612  
                                      i1u258_21 160E                                        i1u259_20 1628  
                                      i1u259_21 1624                                        i1u198_20 28E8  
                                      i1u198_21 28E4                                        i1u199_20 2922  
                                      i1u199_21 291E                                        i1u480_20 1380  
                                      i1u480_21 137C                                        i1u481_20 1394  
                                      i1u481_21 1390                                        i1u482_20 13D0  
                                      i1u482_21 13CC                                        i1u459_20 2B66  
                                      i1u483_20 13E0                                        i1u459_21 2B62  
                                      i1u483_21 13DC                                        i1u484_20 13F2  
                                      i1u484_21 13EE                                        i1u485_20 141E  
                                      i1u485_21 141A                                   ??_serialWrite 0001  
                        ?i1_drop_block_from_sky 0001                                        i1u478_20 1358  
                                      i1u478_21 1354                                        i1u487_20 146E  
                                      i1u486_28 1430                                        i1u479_20 1366  
                                      i1u487_21 146A                                        i1u486_29 1444  
                                      i1u479_21 1362                                        i1u489_20 149A  
                                      i1u488_28 1474                                        i1u489_21 1496  
                                      i1u488_29 148A                                        _PIR1bits 0F9E  
                                    ?_game_step 0001                                        _RCONbits 0FD0  
                              _serialOnReadChar 00FC                                _serialOnReadLine 00FE  
                     rotate_current_block@i_923 00ED                       rotate_current_block@j_924 00E5  
                         ?_rotate_current_block 0001                                        i1___lmul 28CA  
                       ??i1_check_for_full_rows 0019                         ?_solidify_current_block 0001  
                                      i1_memset 2B14                                   ?i1_reset_game 0001  
                          __end_of_update_score 25B2                               ___lmul@multiplier 00E0  
                                     copy_data0 24CE                                       copy_data1 24EE  
              i1check_for_full_rows@row_is_full 0021                                   ?_check_inputs 0001  
                                  ??_onReadChar 0001                                    ??_onReadLine 0031  
                         MAX7219_Write_All@data 00E5                                        __Hrparam 0000  
                                      __Lrparam 0000                               i1___awmod@divisor 0015  
                           __end_of_serialBegin 134A                                       memmove@d1 00E0  
                             i1___awmod@counter 0017                                       memmove@s1 00E2  
                           __end_of_serialPrint 2A4A                  __end_of_solidify_current_block 1C68  
                           __end_of_serialWrite 2BC0                                  ??i1_reset_game 0007  
                     ?i1_solidify_current_block 0001                            i1set_current_block@b 0001  
                          i1set_current_block@i 0002                            i1set_current_block@j 0004  
                            __end_of_onReadChar 2BE6                              __end_of_onReadLine 2B78  
                                      __ptext10 239E                                        __ptext11 1B54  
                                      __ptext20 0830                                        __ptext12 20AA  
                                      __ptext21 253A                                        __ptext13 2ADA  
                                      __ptext30 2BD2                                        __ptext22 2240  
                                      __ptext14 0FE2                                        __ptext31 2B4C  
                                      __ptext23 2B94                                        __ptext15 1C68  
                                      __ptext40 28CA                                        __ptext32 242E  
                                      __ptext24 269C                                        __ptext16 2628  
                                      __ptext41 1900                                        __ptext33 1D7C  
                                      __ptext25 2A92                                        __ptext17 2782  
                                      __ptext42 0A28                                        __ptext34 2176  
                                      __ptext26 2994                                        __ptext18 27F2  
                                      __ptext43 25B2                                        __ptext35 2B14  
                                      __ptext19 17C6                                        __ptext44 22F0  
                                      __ptext36 14EA                                        __ptext28 134A  
                                      __ptext45 2BE4                                        __ptext37 1E8E  
                                      __ptext29 2BAA                                        __ptext38 2710  
                                      __ptext39 285E  __end_ofi1_current_block_is_in_illegal_position 1A38  
  __end_of_current_block_is_in_illegal_position 1900        ??i1_current_block_is_in_illegal_position 0001  
       ?i1_current_block_is_in_illegal_position 0001           ?_current_block_is_in_illegal_position 0001  
        ??_current_block_is_in_illegal_position 00E0          i1_current_block_is_in_illegal_position 1900  
          _current_block_is_in_illegal_position 17C6                                  ??_check_inputs 01E5  
                               _serialBufferLen 005A                                    _serialBuffer 0190  
                                  ??_reset_game 00E6                                    ??_serialRead 0001  
                                  serialPrint@i 00E2                               _set_current_block 2628  
                            SPI_Write_Byte@data 00E2                                     ??_game_step 00FA  
                                      isa$xinst 0000                                        _prev_rb0 0057  
                                      _prev_rb1 0056                                        _prev_rb2 0055  
                                      _prev_rb3 0054                                        _prev_rb4 005F  
                                  serialWrite@c 0001                              ?_set_current_block 00E0  
                                      int$flags 0071                          ??_rotate_current_block 00E0  
                         rotate_current_block@d 00E1                           rotate_current_block@i 00EB  
                         rotate_current_block@j 00E9                           rotate_current_block@k 00E7  
                                 ?_MAX7219_Init 0001                             ??_set_current_block 00E1  
                                    _INTCONbits 0FF2                            MAX7219_Write_All@reg 00E6  
                                      memmove@c 01D0                                        memmove@d 01D4  
                           _check_for_full_rows 0830                                        memmove@n 00E4  
                            __end_of_reset_game 2176                                        memmove@s 01D1  
                            __end_of_serialRead 2BE4                                        intlevel1 0000  
                               serialPrint@text 00E0                       __end_of_set_current_block 269C  
                                   _serialBegin 11A0                                      _OSCCONbits 0FD3  
                                   _serialPrint 29F0                                     _serialWrite 2BAA  
                          ?_check_for_full_rows 0001                                  ??_MAX7219_Init 00E9  
                                 i1reset_game@i 000B                                   i1reset_game@j 000D  
                                _display_matrix 0110                              _current_block_type 0058  
                                  ___aldiv@sign 00E9                         ??i1_drop_block_from_sky 0019  
                          __end_ofi1_reset_game 2240                           ??_check_for_full_rows 01D0  
